---
triple:          'x86_64-apple-darwin'
binary-path:     '/Users/administratorregula/builds/0/build_ios/iphonesimulator/DocumentReaderCore.framework/DocumentReaderCore'
relocations:
  - { offset: 0x3F, size: 0x8, addend: 0x0, symName: _gCountriesUtils, symObjAddr: 0xB8C70, symBinAddr: 0x2382890, symSize: 0x0 }
  - { offset: 0x1BBAD, size: 0x8, addend: 0x0, symName: __ZNSt3__120__throw_length_errorB8ne180100EPKc, symObjAddr: 0x460, symBinAddr: 0x1480, symSize: 0x50 }
  - { offset: 0x1FF1F, size: 0x8, addend: 0x0, symName: __ZN18countriesUtils_lib6getObjEv, symObjAddr: 0x50, symBinAddr: 0x10B0, symSize: 0x40 }
  - { offset: 0x22ACC, size: 0x8, addend: 0x0, symName: _gCountriesUtils_global_registrator_obj, symObjAddr: 0xB8C80, symBinAddr: 0x23828A0, symSize: 0x0 }
  - { offset: 0x28A91, size: 0x8, addend: 0x0, symName: __ZNSt3__18weak_ptrIN18countriesUtils_lib14CountriesUtilsEED1Ev, symObjAddr: 0x0, symBinAddr: 0x1060, symSize: 0x20 }
  - { offset: 0x28B38, size: 0x8, addend: 0x0, symName: __ZN34gCountriesUtils_global_registratorD1Ev, symObjAddr: 0x20, symBinAddr: 0x1080, symSize: 0x30 }
  - { offset: 0x28D1F, size: 0x8, addend: 0x0, symName: __ZN34gCountriesUtils_global_registratorC2Ev, symObjAddr: 0x90, symBinAddr: 0x10F0, symSize: 0x70 }
  - { offset: 0x28ED9, size: 0x8, addend: 0x0, symName: __ZN6common10modularity18ModuleOrchestrator9addModuleIN18countriesUtils_lib14CountriesUtilsELb1EEEmRKSt16initializer_listI18eProcessGlCommandsE, symObjAddr: 0x100, symBinAddr: 0x1160, symSize: 0x1A0 }
  - { offset: 0x29872, size: 0x8, addend: 0x0, symName: __ZN6common10modularity18ModuleOrchestrator12moduleObjectIN18countriesUtils_lib14CountriesUtilsELb1EEENSt3__18weak_ptrIT_EEv, symObjAddr: 0x2A0, symBinAddr: 0x1300, symSize: 0x120 }
  - { offset: 0x2A2A5, size: 0x8, addend: 0x0, symName: __ZNKSt3__16vectorI18eProcessGlCommandsNS_9allocatorIS1_EEE20__throw_length_errorB8ne180100Ev, symObjAddr: 0x440, symBinAddr: 0x1460, symSize: 0x10 }
  - { offset: 0x2A2CF, size: 0x8, addend: 0x0, symName: ___clang_call_terminate, symObjAddr: 0x450, symBinAddr: 0x1470, symSize: 0x10 }
  - { offset: 0x2A33F, size: 0x8, addend: 0x0, symName: __ZNSt3__110shared_ptrIN18countriesUtils_lib14CountriesUtilsEED1B8ne180100Ev, symObjAddr: 0x3C0, symBinAddr: 0x1420, symSize: 0x40 }
  - { offset: 0x2A53D, size: 0x8, addend: 0x0, symName: __ZNSt12length_errorC1B8ne180100EPKc, symObjAddr: 0x4B0, symBinAddr: 0x14D0, symSize: 0x30 }
  - { offset: 0x2A5E3, size: 0x8, addend: 0x0, symName: __ZNSt3__120__shared_ptr_emplaceIN18countriesUtils_lib14CountriesUtilsENS_9allocatorIS2_EEED1Ev, symObjAddr: 0x4E0, symBinAddr: 0x1500, symSize: 0x20 }
  - { offset: 0x2A63B, size: 0x8, addend: 0x0, symName: __ZNSt3__120__shared_ptr_emplaceIN18countriesUtils_lib14CountriesUtilsENS_9allocatorIS2_EEED0Ev, symObjAddr: 0x500, symBinAddr: 0x1520, symSize: 0x30 }
  - { offset: 0x2A728, size: 0x8, addend: 0x0, symName: __ZNSt3__120__shared_ptr_emplaceIN18countriesUtils_lib14CountriesUtilsENS_9allocatorIS2_EEE16__on_zero_sharedEv, symObjAddr: 0x530, symBinAddr: 0x1550, symSize: 0x10 }
  - { offset: 0x2A7CA, size: 0x8, addend: 0x0, symName: __ZNSt3__120__shared_ptr_emplaceIN18countriesUtils_lib14CountriesUtilsENS_9allocatorIS2_EEE21__on_zero_shared_weakEv, symObjAddr: 0x540, symBinAddr: 0x1560, symSize: 0xA }
  - { offset: 0x2D52A, size: 0x8, addend: 0x0, symName: _gImageSecurityExternal, symObjAddr: 0x9C9A0, symBinAddr: 0x23828B0, symSize: 0x0 }
  - { offset: 0x40AFB, size: 0x8, addend: 0x0, symName: __ZN13imageSecurity6getObjEv, symObjAddr: 0x50, symBinAddr: 0x1610, symSize: 0x40 }
  - { offset: 0x44433, size: 0x8, addend: 0x0, symName: _gImageSecurityExternal_global_registrator_obj, symObjAddr: 0x9C9B0, symBinAddr: 0x23828C0, symSize: 0x0 }
  - { offset: 0x45C16, size: 0x8, addend: 0x0, symName: __ZNSt3__18weak_ptrIN13imageSecurity14CImageSecurityEED1Ev, symObjAddr: 0x0, symBinAddr: 0x15C0, symSize: 0x20 }
  - { offset: 0x45CBD, size: 0x8, addend: 0x0, symName: __ZN41gImageSecurityExternal_global_registratorD1Ev, symObjAddr: 0x20, symBinAddr: 0x15E0, symSize: 0x30 }
  - { offset: 0x45EA4, size: 0x8, addend: 0x0, symName: __ZN41gImageSecurityExternal_global_registratorC2Ev, symObjAddr: 0x90, symBinAddr: 0x1650, symSize: 0x70 }
  - { offset: 0x4605E, size: 0x8, addend: 0x0, symName: __ZN6common10modularity18ModuleOrchestrator9addModuleIN13imageSecurity14CImageSecurityELb1EEEmRKSt16initializer_listI18eProcessGlCommandsE, symObjAddr: 0x100, symBinAddr: 0x16C0, symSize: 0x1A0 }
  - { offset: 0x469F5, size: 0x8, addend: 0x0, symName: __ZN6common10modularity18ModuleOrchestrator12moduleObjectIN13imageSecurity14CImageSecurityELb1EEENSt3__18weak_ptrIT_EEv, symObjAddr: 0x2A0, symBinAddr: 0x1860, symSize: 0x120 }
  - { offset: 0x476B6, size: 0x8, addend: 0x0, symName: __ZNSt3__120__shared_ptr_emplaceIN13imageSecurity14CImageSecurityENS_9allocatorIS2_EEED1Ev, symObjAddr: 0x4E0, symBinAddr: 0x1980, symSize: 0x20 }
  - { offset: 0x4770E, size: 0x8, addend: 0x0, symName: __ZNSt3__120__shared_ptr_emplaceIN13imageSecurity14CImageSecurityENS_9allocatorIS2_EEED0Ev, symObjAddr: 0x500, symBinAddr: 0x19A0, symSize: 0x30 }
  - { offset: 0x477FB, size: 0x8, addend: 0x0, symName: __ZNSt3__120__shared_ptr_emplaceIN13imageSecurity14CImageSecurityENS_9allocatorIS2_EEE16__on_zero_sharedEv, symObjAddr: 0x530, symBinAddr: 0x19D0, symSize: 0x10 }
  - { offset: 0x4789D, size: 0x8, addend: 0x0, symName: __ZNSt3__120__shared_ptr_emplaceIN13imageSecurity14CImageSecurityENS_9allocatorIS2_EEE21__on_zero_shared_weakEv, symObjAddr: 0x540, symBinAddr: 0x19E0, symSize: 0xA }
  - { offset: 0x49B8F, size: 0x8, addend: 0x0, symName: _gBarcodes, symObjAddr: 0xBCA70, symBinAddr: 0x23828D0, symSize: 0x0 }
  - { offset: 0x666D9, size: 0x8, addend: 0x0, symName: _gBarcodes_global_registrator_obj, symObjAddr: 0xBCA80, symBinAddr: 0x23828E0, symSize: 0x0 }
  - { offset: 0x674EA, size: 0x8, addend: 0x0, symName: __ZNSt3__18weak_ptrI9CBarcodesED1Ev, symObjAddr: 0x0, symBinAddr: 0x1A40, symSize: 0x20 }
  - { offset: 0x67591, size: 0x8, addend: 0x0, symName: __ZN28gBarcodes_global_registratorD1Ev, symObjAddr: 0x20, symBinAddr: 0x1A60, symSize: 0x30 }
  - { offset: 0x67716, size: 0x8, addend: 0x0, symName: __ZN28gBarcodes_global_registratorC2Ev, symObjAddr: 0x50, symBinAddr: 0x1A90, symSize: 0x70 }
  - { offset: 0x678D0, size: 0x8, addend: 0x0, symName: __ZN6common10modularity18ModuleOrchestrator9addModuleI9CBarcodesLb1EEEmRKSt16initializer_listI18eProcessGlCommandsE, symObjAddr: 0xC0, symBinAddr: 0x1B00, symSize: 0x1A0 }
  - { offset: 0x68269, size: 0x8, addend: 0x0, symName: __ZN6common10modularity18ModuleOrchestrator12moduleObjectI9CBarcodesLb1EEENSt3__18weak_ptrIT_EEv, symObjAddr: 0x260, symBinAddr: 0x1CA0, symSize: 0x120 }
  - { offset: 0x68F2F, size: 0x8, addend: 0x0, symName: __ZNSt3__120__shared_ptr_emplaceI9CBarcodesNS_9allocatorIS1_EEED1Ev, symObjAddr: 0x4A0, symBinAddr: 0x1DC0, symSize: 0x20 }
  - { offset: 0x68F87, size: 0x8, addend: 0x0, symName: __ZNSt3__120__shared_ptr_emplaceI9CBarcodesNS_9allocatorIS1_EEED0Ev, symObjAddr: 0x4C0, symBinAddr: 0x1DE0, symSize: 0x30 }
  - { offset: 0x69074, size: 0x8, addend: 0x0, symName: __ZNSt3__120__shared_ptr_emplaceI9CBarcodesNS_9allocatorIS1_EEE16__on_zero_sharedEv, symObjAddr: 0x4F0, symBinAddr: 0x1E10, symSize: 0x10 }
  - { offset: 0x69116, size: 0x8, addend: 0x0, symName: __ZNSt3__120__shared_ptr_emplaceI9CBarcodesNS_9allocatorIS1_EEE21__on_zero_shared_weakEv, symObjAddr: 0x500, symBinAddr: 0x1E20, symSize: 0xA }
  - { offset: 0x6B394, size: 0x8, addend: 0x0, symName: _gBindExternal, symObjAddr: 0xBEBF0, symBinAddr: 0x23828F0, symSize: 0x0 }
  - { offset: 0x82530, size: 0x8, addend: 0x0, symName: __ZN8bind_lib6getObjEv, symObjAddr: 0x50, symBinAddr: 0x1ED0, symSize: 0x40 }
  - { offset: 0x89565, size: 0x8, addend: 0x0, symName: _gBindExternal_global_registrator_obj, symObjAddr: 0xBEC00, symBinAddr: 0x2382900, symSize: 0x0 }
  - { offset: 0x8AD42, size: 0x8, addend: 0x0, symName: __ZNSt3__18weak_ptrIN8bind_lib11BindProcessEED1Ev, symObjAddr: 0x0, symBinAddr: 0x1E80, symSize: 0x20 }
  - { offset: 0x8ADE9, size: 0x8, addend: 0x0, symName: __ZN32gBindExternal_global_registratorD1Ev, symObjAddr: 0x20, symBinAddr: 0x1EA0, symSize: 0x30 }
  - { offset: 0x8AFD0, size: 0x8, addend: 0x0, symName: __ZN32gBindExternal_global_registratorC2Ev, symObjAddr: 0x90, symBinAddr: 0x1F10, symSize: 0x70 }
  - { offset: 0x8B18A, size: 0x8, addend: 0x0, symName: __ZN6common10modularity18ModuleOrchestrator9addModuleIN8bind_lib11BindProcessELb1EEEmRKSt16initializer_listI18eProcessGlCommandsE, symObjAddr: 0x100, symBinAddr: 0x1F80, symSize: 0x1A0 }
  - { offset: 0x8BB21, size: 0x8, addend: 0x0, symName: __ZN6common10modularity18ModuleOrchestrator12moduleObjectIN8bind_lib11BindProcessELb1EEENSt3__18weak_ptrIT_EEv, symObjAddr: 0x2A0, symBinAddr: 0x2120, symSize: 0x120 }
  - { offset: 0x8C7E2, size: 0x8, addend: 0x0, symName: __ZNSt3__120__shared_ptr_emplaceIN8bind_lib11BindProcessENS_9allocatorIS2_EEED1Ev, symObjAddr: 0x4E0, symBinAddr: 0x2240, symSize: 0x20 }
  - { offset: 0x8C83A, size: 0x8, addend: 0x0, symName: __ZNSt3__120__shared_ptr_emplaceIN8bind_lib11BindProcessENS_9allocatorIS2_EEED0Ev, symObjAddr: 0x500, symBinAddr: 0x2260, symSize: 0x30 }
  - { offset: 0x8C927, size: 0x8, addend: 0x0, symName: __ZNSt3__120__shared_ptr_emplaceIN8bind_lib11BindProcessENS_9allocatorIS2_EEE16__on_zero_sharedEv, symObjAddr: 0x530, symBinAddr: 0x2290, symSize: 0x10 }
  - { offset: 0x8C9C9, size: 0x8, addend: 0x0, symName: __ZNSt3__120__shared_ptr_emplaceIN8bind_lib11BindProcessENS_9allocatorIS2_EEE21__on_zero_shared_weakEv, symObjAddr: 0x540, symBinAddr: 0x22A0, symSize: 0xA }
  - { offset: 0x8EC6A, size: 0x8, addend: 0x0, symName: __ZN6common9resourcesL14dbStatusAbsentE, symObjAddr: 0x1812B8, symBinAddr: 0x2399580, symSize: 0x0 }
  - { offset: 0x8EC84, size: 0x8, addend: 0x0, symName: __ZN6common9resourcesL17dbStatusIncorrectE, symObjAddr: 0x1812D0, symBinAddr: 0x2399598, symSize: 0x0 }
  - { offset: 0xC1B4F, size: 0x8, addend: 0x0, symName: _gBoundsExternal, symObjAddr: 0x1812F0, symBinAddr: 0x2382910, symSize: 0x0 }
  - { offset: 0xC53EB, size: 0x8, addend: 0x0, symName: __ZN6bounds6getObjEv, symObjAddr: 0x50, symBinAddr: 0x2350, symSize: 0x40 }
  - { offset: 0xCCDA5, size: 0x8, addend: 0x0, symName: __ZN3Ort6GlobalIvE4api_E, symObjAddr: 0x6D0, symBinAddr: 0x2361E38, symSize: 0x0 }
  - { offset: 0xCF386, size: 0x8, addend: 0x0, symName: _gBoundsExternal_global_registrator_obj, symObjAddr: 0x181300, symBinAddr: 0x2382920, symSize: 0x0 }
  - { offset: 0xD31D6, size: 0x8, addend: 0x0, symName: __ZNSt3__18weak_ptrI6BoundsED1Ev, symObjAddr: 0x0, symBinAddr: 0x2300, symSize: 0x20 }
  - { offset: 0xD327D, size: 0x8, addend: 0x0, symName: __ZN34gBoundsExternal_global_registratorD1Ev, symObjAddr: 0x20, symBinAddr: 0x2320, symSize: 0x30 }
  - { offset: 0xD3464, size: 0x8, addend: 0x0, symName: __ZN34gBoundsExternal_global_registratorC2Ev, symObjAddr: 0x90, symBinAddr: 0x2390, symSize: 0x70 }
  - { offset: 0xD361E, size: 0x8, addend: 0x0, symName: __ZN6common10modularity18ModuleOrchestrator9addModuleI6BoundsLb1EEEmRKSt16initializer_listI18eProcessGlCommandsE, symObjAddr: 0x100, symBinAddr: 0x2400, symSize: 0x1A0 }
  - { offset: 0xD3FB7, size: 0x8, addend: 0x0, symName: __ZN6common10modularity18ModuleOrchestrator12moduleObjectI6BoundsLb1EEENSt3__18weak_ptrIT_EEv, symObjAddr: 0x2A0, symBinAddr: 0x25A0, symSize: 0x120 }
  - { offset: 0xD4C78, size: 0x8, addend: 0x0, symName: __ZNSt3__120__shared_ptr_emplaceI6BoundsNS_9allocatorIS1_EEED1Ev, symObjAddr: 0x4E0, symBinAddr: 0x26C0, symSize: 0x20 }
  - { offset: 0xD4CD0, size: 0x8, addend: 0x0, symName: __ZNSt3__120__shared_ptr_emplaceI6BoundsNS_9allocatorIS1_EEED0Ev, symObjAddr: 0x500, symBinAddr: 0x26E0, symSize: 0x30 }
  - { offset: 0xD4DBD, size: 0x8, addend: 0x0, symName: __ZNSt3__120__shared_ptr_emplaceI6BoundsNS_9allocatorIS1_EEE16__on_zero_sharedEv, symObjAddr: 0x530, symBinAddr: 0x2710, symSize: 0x10 }
  - { offset: 0xD4E5F, size: 0x8, addend: 0x0, symName: __ZNSt3__120__shared_ptr_emplaceI6BoundsNS_9allocatorIS1_EEE21__on_zero_shared_weakEv, symObjAddr: 0x540, symBinAddr: 0x2720, symSize: 0xA }
  - { offset: 0xD70E1, size: 0x8, addend: 0x0, symName: _gCHoloExternal, symObjAddr: 0x133230, symBinAddr: 0x2382930, symSize: 0x0 }
  - { offset: 0xF6706, size: 0x8, addend: 0x0, symName: __ZN15choloestimation6getObjEv, symObjAddr: 0x50, symBinAddr: 0x2870, symSize: 0x40 }
  - { offset: 0xFFCFF, size: 0x8, addend: 0x0, symName: _gCHoloExternal_global_registrator_obj, symObjAddr: 0x133240, symBinAddr: 0x2382940, symSize: 0x0 }
  - { offset: 0x100B11, size: 0x8, addend: 0x0, symName: __ZNSt3__18weak_ptrIN15choloestimation15CHoloEstimationEED1Ev, symObjAddr: 0x0, symBinAddr: 0x2820, symSize: 0x20 }
  - { offset: 0x100BB8, size: 0x8, addend: 0x0, symName: __ZN33gCHoloExternal_global_registratorD1Ev, symObjAddr: 0x20, symBinAddr: 0x2840, symSize: 0x30 }
  - { offset: 0x100D9F, size: 0x8, addend: 0x0, symName: __ZN33gCHoloExternal_global_registratorC2Ev, symObjAddr: 0x90, symBinAddr: 0x28B0, symSize: 0x70 }
  - { offset: 0x100F59, size: 0x8, addend: 0x0, symName: __ZN6common10modularity18ModuleOrchestrator9addModuleIN15choloestimation15CHoloEstimationELb1EEEmRKSt16initializer_listI18eProcessGlCommandsE, symObjAddr: 0x100, symBinAddr: 0x2920, symSize: 0x1A0 }
  - { offset: 0x1018F2, size: 0x8, addend: 0x0, symName: __ZN6common10modularity18ModuleOrchestrator12moduleObjectIN15choloestimation15CHoloEstimationELb1EEENSt3__18weak_ptrIT_EEv, symObjAddr: 0x2A0, symBinAddr: 0x2AC0, symSize: 0x120 }
  - { offset: 0x1025B3, size: 0x8, addend: 0x0, symName: __ZNSt3__120__shared_ptr_emplaceIN15choloestimation15CHoloEstimationENS_9allocatorIS2_EEED1Ev, symObjAddr: 0x4E0, symBinAddr: 0x2BE0, symSize: 0x20 }
  - { offset: 0x10260B, size: 0x8, addend: 0x0, symName: __ZNSt3__120__shared_ptr_emplaceIN15choloestimation15CHoloEstimationENS_9allocatorIS2_EEED0Ev, symObjAddr: 0x500, symBinAddr: 0x2C00, symSize: 0x30 }
  - { offset: 0x1026F8, size: 0x8, addend: 0x0, symName: __ZNSt3__120__shared_ptr_emplaceIN15choloestimation15CHoloEstimationENS_9allocatorIS2_EEE16__on_zero_sharedEv, symObjAddr: 0x530, symBinAddr: 0x2C30, symSize: 0x10 }
  - { offset: 0x10279A, size: 0x8, addend: 0x0, symName: __ZNSt3__120__shared_ptr_emplaceIN15choloestimation15CHoloEstimationENS_9allocatorIS2_EEE21__on_zero_shared_weakEv, symObjAddr: 0x540, symBinAddr: 0x2C40, symSize: 0xA }
  - { offset: 0x104A1E, size: 0x8, addend: 0x0, symName: _gCodeConvertor, symObjAddr: 0x16E950, symBinAddr: 0x2382950, symSize: 0x0 }
  - { offset: 0x1473D3, size: 0x8, addend: 0x0, symName: _gCodeConvertor_global_registrator_obj, symObjAddr: 0x16E960, symBinAddr: 0x2382960, symSize: 0x0 }
  - { offset: 0x148B7B, size: 0x8, addend: 0x0, symName: __ZNSt3__18weak_ptrI14CCodeConvertorED1Ev, symObjAddr: 0x0, symBinAddr: 0x2CA0, symSize: 0x20 }
  - { offset: 0x148C22, size: 0x8, addend: 0x0, symName: __ZN33gCodeConvertor_global_registratorD1Ev, symObjAddr: 0x20, symBinAddr: 0x2CC0, symSize: 0x30 }
  - { offset: 0x148DA7, size: 0x8, addend: 0x0, symName: __ZN33gCodeConvertor_global_registratorC2Ev, symObjAddr: 0x50, symBinAddr: 0x2CF0, symSize: 0x70 }
  - { offset: 0x148F61, size: 0x8, addend: 0x0, symName: __ZN6common10modularity18ModuleOrchestrator9addModuleI14CCodeConvertorLb1EEEmRKSt16initializer_listI18eProcessGlCommandsE, symObjAddr: 0xC0, symBinAddr: 0x2D60, symSize: 0x1A0 }
  - { offset: 0x149924, size: 0x8, addend: 0x0, symName: __ZN6common10modularity18ModuleOrchestrator12moduleObjectI14CCodeConvertorLb1EEENSt3__18weak_ptrIT_EEv, symObjAddr: 0x260, symBinAddr: 0x2F00, symSize: 0x120 }
  - { offset: 0x14A5FD, size: 0x8, addend: 0x0, symName: __ZNSt3__120__shared_ptr_emplaceI14CCodeConvertorNS_9allocatorIS1_EEED1Ev, symObjAddr: 0x4A0, symBinAddr: 0x3020, symSize: 0x20 }
  - { offset: 0x14A655, size: 0x8, addend: 0x0, symName: __ZNSt3__120__shared_ptr_emplaceI14CCodeConvertorNS_9allocatorIS1_EEED0Ev, symObjAddr: 0x4C0, symBinAddr: 0x3040, symSize: 0x30 }
  - { offset: 0x14A742, size: 0x8, addend: 0x0, symName: __ZNSt3__120__shared_ptr_emplaceI14CCodeConvertorNS_9allocatorIS1_EEE16__on_zero_sharedEv, symObjAddr: 0x4F0, symBinAddr: 0x3070, symSize: 0x10 }
  - { offset: 0x14A7E4, size: 0x8, addend: 0x0, symName: __ZNSt3__120__shared_ptr_emplaceI14CCodeConvertorNS_9allocatorIS1_EEE21__on_zero_shared_weakEv, symObjAddr: 0x500, symBinAddr: 0x3080, symSize: 0xA }
  - { offset: 0x14CC81, size: 0x8, addend: 0x0, symName: _gCodes2D, symObjAddr: 0xF2BC0, symBinAddr: 0x2382970, symSize: 0x0 }
  - { offset: 0x16B270, size: 0x8, addend: 0x0, symName: _gCodes2D_global_registrator_obj, symObjAddr: 0xF2BD0, symBinAddr: 0x2382980, symSize: 0x0 }
  - { offset: 0x16CA1F, size: 0x8, addend: 0x0, symName: __ZNSt3__18weak_ptrI8CCodes2DED1Ev, symObjAddr: 0x0, symBinAddr: 0x30E0, symSize: 0x20 }
  - { offset: 0x16CAC6, size: 0x8, addend: 0x0, symName: __ZN27gCodes2D_global_registratorD1Ev, symObjAddr: 0x20, symBinAddr: 0x3100, symSize: 0x30 }
  - { offset: 0x16CC4B, size: 0x8, addend: 0x0, symName: __ZN27gCodes2D_global_registratorC2Ev, symObjAddr: 0x50, symBinAddr: 0x3130, symSize: 0x70 }
  - { offset: 0x16CE05, size: 0x8, addend: 0x0, symName: __ZN6common10modularity18ModuleOrchestrator9addModuleI8CCodes2DLb1EEEmRKSt16initializer_listI18eProcessGlCommandsE, symObjAddr: 0xC0, symBinAddr: 0x31A0, symSize: 0x1A0 }
  - { offset: 0x16D79E, size: 0x8, addend: 0x0, symName: __ZN6common10modularity18ModuleOrchestrator12moduleObjectI8CCodes2DLb1EEENSt3__18weak_ptrIT_EEv, symObjAddr: 0x260, symBinAddr: 0x3340, symSize: 0x120 }
  - { offset: 0x16E464, size: 0x8, addend: 0x0, symName: __ZNSt3__120__shared_ptr_emplaceI8CCodes2DNS_9allocatorIS1_EEED1Ev, symObjAddr: 0x4A0, symBinAddr: 0x3460, symSize: 0x20 }
  - { offset: 0x16E4BC, size: 0x8, addend: 0x0, symName: __ZNSt3__120__shared_ptr_emplaceI8CCodes2DNS_9allocatorIS1_EEED0Ev, symObjAddr: 0x4C0, symBinAddr: 0x3480, symSize: 0x30 }
  - { offset: 0x16E5A9, size: 0x8, addend: 0x0, symName: __ZNSt3__120__shared_ptr_emplaceI8CCodes2DNS_9allocatorIS1_EEE16__on_zero_sharedEv, symObjAddr: 0x4F0, symBinAddr: 0x34B0, symSize: 0x10 }
  - { offset: 0x16E64B, size: 0x8, addend: 0x0, symName: __ZNSt3__120__shared_ptr_emplaceI8CCodes2DNS_9allocatorIS1_EEE21__on_zero_shared_weakEv, symObjAddr: 0x500, symBinAddr: 0x34C0, symSize: 0xA }
  - { offset: 0x1708AC, size: 0x8, addend: 0x0, symName: _gDataTransfer, symObjAddr: 0x9F8A0, symBinAddr: 0x2382990, symSize: 0x0 }
  - { offset: 0x181750, size: 0x8, addend: 0x0, symName: __ZN12datatransfer6getObjEv, symObjAddr: 0x50, symBinAddr: 0x3570, symSize: 0x40 }
  - { offset: 0x184084, size: 0x8, addend: 0x0, symName: _gDataTransfer_global_registrator_obj, symObjAddr: 0x9F8B0, symBinAddr: 0x23829A0, symSize: 0x0 }
  - { offset: 0x18583A, size: 0x8, addend: 0x0, symName: __ZNSt3__18weak_ptrIN12datatransfer19DataTransferProcessEED1Ev, symObjAddr: 0x0, symBinAddr: 0x3520, symSize: 0x20 }
  - { offset: 0x1858E1, size: 0x8, addend: 0x0, symName: __ZN32gDataTransfer_global_registratorD1Ev, symObjAddr: 0x20, symBinAddr: 0x3540, symSize: 0x30 }
  - { offset: 0x185AC8, size: 0x8, addend: 0x0, symName: __ZN32gDataTransfer_global_registratorC2Ev, symObjAddr: 0x90, symBinAddr: 0x35B0, symSize: 0x70 }
  - { offset: 0x185C82, size: 0x8, addend: 0x0, symName: __ZN6common10modularity18ModuleOrchestrator9addModuleIN12datatransfer19DataTransferProcessELb1EEEmRKSt16initializer_listI18eProcessGlCommandsE, symObjAddr: 0x100, symBinAddr: 0x3620, symSize: 0x1A0 }
  - { offset: 0x18661B, size: 0x8, addend: 0x0, symName: __ZN6common10modularity18ModuleOrchestrator12moduleObjectIN12datatransfer19DataTransferProcessELb1EEENSt3__18weak_ptrIT_EEv, symObjAddr: 0x2A0, symBinAddr: 0x37C0, symSize: 0x120 }
  - { offset: 0x1872DC, size: 0x8, addend: 0x0, symName: __ZNSt3__120__shared_ptr_emplaceIN12datatransfer19DataTransferProcessENS_9allocatorIS2_EEED1Ev, symObjAddr: 0x4E0, symBinAddr: 0x38E0, symSize: 0x20 }
  - { offset: 0x187334, size: 0x8, addend: 0x0, symName: __ZNSt3__120__shared_ptr_emplaceIN12datatransfer19DataTransferProcessENS_9allocatorIS2_EEED0Ev, symObjAddr: 0x500, symBinAddr: 0x3900, symSize: 0x30 }
  - { offset: 0x187421, size: 0x8, addend: 0x0, symName: __ZNSt3__120__shared_ptr_emplaceIN12datatransfer19DataTransferProcessENS_9allocatorIS2_EEE16__on_zero_sharedEv, symObjAddr: 0x530, symBinAddr: 0x3930, symSize: 0x10 }
  - { offset: 0x1874C3, size: 0x8, addend: 0x0, symName: __ZNSt3__120__shared_ptr_emplaceIN12datatransfer19DataTransferProcessENS_9allocatorIS2_EEE21__on_zero_shared_weakEv, symObjAddr: 0x540, symBinAddr: 0x3940, symSize: 0xA }
  - { offset: 0x1897CB, size: 0x8, addend: 0x0, symName: __ZN7docdesc8gDocDescE, symObjAddr: 0xA81A0, symBinAddr: 0x23829B0, symSize: 0x0 }
  - { offset: 0x189917, size: 0x8, addend: 0x0, symName: __ZN7docdesc31gDocDesc_global_registrator_objE, symObjAddr: 0xA81B0, symBinAddr: 0x23829C0, symSize: 0x0 }
  - { offset: 0x189954, size: 0x8, addend: 0x0, symName: __ZN7docdesc6getObjEv, symObjAddr: 0x50, symBinAddr: 0x39F0, symSize: 0x40 }
  - { offset: 0x1A0976, size: 0x8, addend: 0x0, symName: __ZNSt3__18weak_ptrIN7docdesc7DocDescEED1Ev, symObjAddr: 0x0, symBinAddr: 0x39A0, symSize: 0x20 }
  - { offset: 0x1A0A1D, size: 0x8, addend: 0x0, symName: __ZN7docdesc27gDocDesc_global_registratorD1Ev, symObjAddr: 0x20, symBinAddr: 0x39C0, symSize: 0x30 }
  - { offset: 0x1A0C04, size: 0x8, addend: 0x0, symName: __ZN7docdesc27gDocDesc_global_registratorC2Ev, symObjAddr: 0x90, symBinAddr: 0x3A30, symSize: 0x70 }
  - { offset: 0x1A0DBE, size: 0x8, addend: 0x0, symName: __ZN6common10modularity18ModuleOrchestrator9addModuleIN7docdesc7DocDescELb1EEEmRKSt16initializer_listI18eProcessGlCommandsE, symObjAddr: 0x100, symBinAddr: 0x3AA0, symSize: 0x1A0 }
  - { offset: 0x1A1757, size: 0x8, addend: 0x0, symName: __ZN6common10modularity18ModuleOrchestrator12moduleObjectIN7docdesc7DocDescELb1EEENSt3__18weak_ptrIT_EEv, symObjAddr: 0x2A0, symBinAddr: 0x3C40, symSize: 0x120 }
  - { offset: 0x1A2418, size: 0x8, addend: 0x0, symName: __ZNSt3__120__shared_ptr_emplaceIN7docdesc7DocDescENS_9allocatorIS2_EEED1Ev, symObjAddr: 0x4E0, symBinAddr: 0x3D60, symSize: 0x20 }
  - { offset: 0x1A2470, size: 0x8, addend: 0x0, symName: __ZNSt3__120__shared_ptr_emplaceIN7docdesc7DocDescENS_9allocatorIS2_EEED0Ev, symObjAddr: 0x500, symBinAddr: 0x3D80, symSize: 0x30 }
  - { offset: 0x1A255D, size: 0x8, addend: 0x0, symName: __ZNSt3__120__shared_ptr_emplaceIN7docdesc7DocDescENS_9allocatorIS2_EEE16__on_zero_sharedEv, symObjAddr: 0x530, symBinAddr: 0x3DB0, symSize: 0x10 }
  - { offset: 0x1A25FF, size: 0x8, addend: 0x0, symName: __ZNSt3__120__shared_ptr_emplaceIN7docdesc7DocDescENS_9allocatorIS2_EEE21__on_zero_shared_weakEv, symObjAddr: 0x540, symBinAddr: 0x3DC0, symSize: 0xA }
  - { offset: 0x1A48F2, size: 0x8, addend: 0x0, symName: __ZN6common9resourcesL14dbStatusAbsentE, symObjAddr: 0x10C860, symBinAddr: 0x23995B0, symSize: 0x0 }
  - { offset: 0x1A490C, size: 0x8, addend: 0x0, symName: __ZN6common9resourcesL17dbStatusIncorrectE, symObjAddr: 0x10C878, symBinAddr: 0x23995C8, symSize: 0x0 }
  - { offset: 0x1BF6BE, size: 0x8, addend: 0x0, symName: _gFaceDetector, symObjAddr: 0x10C8A0, symBinAddr: 0x23829D0, symSize: 0x0 }
  - { offset: 0x1C1FDB, size: 0x8, addend: 0x0, symName: _gFaceDetector_global_registrator_obj, symObjAddr: 0x10C8B0, symBinAddr: 0x23829E0, symSize: 0x0 }
  - { offset: 0x1C37C7, size: 0x8, addend: 0x0, symName: __ZNSt3__18weak_ptrI13FaceDetectionED1Ev, symObjAddr: 0x0, symBinAddr: 0x3E20, symSize: 0x20 }
  - { offset: 0x1C386E, size: 0x8, addend: 0x0, symName: __ZN32gFaceDetector_global_registratorD1Ev, symObjAddr: 0x20, symBinAddr: 0x3E40, symSize: 0x30 }
  - { offset: 0x1C39F3, size: 0x8, addend: 0x0, symName: __ZN32gFaceDetector_global_registratorC2Ev, symObjAddr: 0x50, symBinAddr: 0x3E70, symSize: 0x70 }
  - { offset: 0x1C3BAD, size: 0x8, addend: 0x0, symName: __ZN6common10modularity18ModuleOrchestrator9addModuleI13FaceDetectionLb1EEEmRKSt16initializer_listI18eProcessGlCommandsE, symObjAddr: 0xC0, symBinAddr: 0x3EE0, symSize: 0x1A0 }
  - { offset: 0x1C4546, size: 0x8, addend: 0x0, symName: __ZN6common10modularity18ModuleOrchestrator12moduleObjectI13FaceDetectionLb1EEENSt3__18weak_ptrIT_EEv, symObjAddr: 0x260, symBinAddr: 0x4080, symSize: 0xF0 }
  - { offset: 0x1C5221, size: 0x8, addend: 0x0, symName: __ZNSt3__120__shared_ptr_emplaceI13FaceDetectionNS_9allocatorIS1_EEED1Ev, symObjAddr: 0x470, symBinAddr: 0x4170, symSize: 0x20 }
  - { offset: 0x1C5279, size: 0x8, addend: 0x0, symName: __ZNSt3__120__shared_ptr_emplaceI13FaceDetectionNS_9allocatorIS1_EEED0Ev, symObjAddr: 0x490, symBinAddr: 0x4190, symSize: 0x30 }
  - { offset: 0x1C5446, size: 0x8, addend: 0x0, symName: __ZNSt3__120__shared_ptr_emplaceI13FaceDetectionNS_9allocatorIS1_EEE16__on_zero_sharedEv, symObjAddr: 0x4C0, symBinAddr: 0x41C0, symSize: 0x60 }
  - { offset: 0x1C55FA, size: 0x8, addend: 0x0, symName: __ZN4rdnn4face12FaceDetectorD2Ev, symObjAddr: 0x530, symBinAddr: 0x4230, symSize: 0x100 }
  - { offset: 0x1C5CC1, size: 0x8, addend: 0x0, symName: __ZNSt3__120__shared_ptr_emplaceI13FaceDetectionNS_9allocatorIS1_EEE21__on_zero_shared_weakEv, symObjAddr: 0x520, symBinAddr: 0x4220, symSize: 0x10 }
  - { offset: 0x1C6241, size: 0x8, addend: 0x0, symName: __ZN4rdnn9DnnHolderD2Ev, symObjAddr: 0x630, symBinAddr: 0x4330, symSize: 0xD1 }
  - { offset: 0x1C8AB0, size: 0x8, addend: 0x0, symName: __ZN12graphics_lib17gGraphicsExternalE, symObjAddr: 0x9F140, symBinAddr: 0x23829F0, symSize: 0x0 }
  - { offset: 0x1C8CFD, size: 0x8, addend: 0x0, symName: __ZN12graphics_lib40gGraphicsExternal_global_registrator_objE, symObjAddr: 0x9F150, symBinAddr: 0x2382A00, symSize: 0x0 }
  - { offset: 0x1C8D3A, size: 0x8, addend: 0x0, symName: __ZN12graphics_lib6getObjEv, symObjAddr: 0x50, symBinAddr: 0x4550, symSize: 0x40 }
  - { offset: 0x1DCD5F, size: 0x8, addend: 0x0, symName: __ZNSt3__18weak_ptrIN12graphics_lib15GraphicsProcessEED1Ev, symObjAddr: 0x0, symBinAddr: 0x4500, symSize: 0x20 }
  - { offset: 0x1DCE06, size: 0x8, addend: 0x0, symName: __ZN12graphics_lib36gGraphicsExternal_global_registratorD1Ev, symObjAddr: 0x20, symBinAddr: 0x4520, symSize: 0x30 }
  - { offset: 0x1DCFED, size: 0x8, addend: 0x0, symName: __ZN12graphics_lib36gGraphicsExternal_global_registratorC2Ev, symObjAddr: 0x90, symBinAddr: 0x4590, symSize: 0x70 }
  - { offset: 0x1DD1A7, size: 0x8, addend: 0x0, symName: __ZN6common10modularity18ModuleOrchestrator9addModuleIN12graphics_lib15GraphicsProcessELb1EEEmRKSt16initializer_listI18eProcessGlCommandsE, symObjAddr: 0x100, symBinAddr: 0x4600, symSize: 0x1A0 }
  - { offset: 0x1DDB3E, size: 0x8, addend: 0x0, symName: __ZN6common10modularity18ModuleOrchestrator12moduleObjectIN12graphics_lib15GraphicsProcessELb1EEENSt3__18weak_ptrIT_EEv, symObjAddr: 0x2A0, symBinAddr: 0x47A0, symSize: 0x120 }
  - { offset: 0x1DE7FF, size: 0x8, addend: 0x0, symName: __ZNSt3__120__shared_ptr_emplaceIN12graphics_lib15GraphicsProcessENS_9allocatorIS2_EEED1Ev, symObjAddr: 0x4E0, symBinAddr: 0x48C0, symSize: 0x20 }
  - { offset: 0x1DE857, size: 0x8, addend: 0x0, symName: __ZNSt3__120__shared_ptr_emplaceIN12graphics_lib15GraphicsProcessENS_9allocatorIS2_EEED0Ev, symObjAddr: 0x500, symBinAddr: 0x48E0, symSize: 0x30 }
  - { offset: 0x1DE944, size: 0x8, addend: 0x0, symName: __ZNSt3__120__shared_ptr_emplaceIN12graphics_lib15GraphicsProcessENS_9allocatorIS2_EEE16__on_zero_sharedEv, symObjAddr: 0x530, symBinAddr: 0x4910, symSize: 0x10 }
  - { offset: 0x1DE9E6, size: 0x8, addend: 0x0, symName: __ZNSt3__120__shared_ptr_emplaceIN12graphics_lib15GraphicsProcessENS_9allocatorIS2_EEE21__on_zero_shared_weakEv, symObjAddr: 0x540, symBinAddr: 0x4920, symSize: 0xA }
  - { offset: 0x1E0CA1, size: 0x8, addend: 0x0, symName: __ZN6common9resourcesL14dbStatusAbsentE, symObjAddr: 0x1BEE68, symBinAddr: 0x23995E0, symSize: 0x0 }
  - { offset: 0x1E0CBB, size: 0x8, addend: 0x0, symName: __ZN6common9resourcesL17dbStatusIncorrectE, symObjAddr: 0x1BEE80, symBinAddr: 0x23995F8, symSize: 0x0 }
  - { offset: 0x20BC8A, size: 0x8, addend: 0x0, symName: __ZN12holophotolib11gCHoloPhotoE, symObjAddr: 0x1BEEA0, symBinAddr: 0x2382A10, symSize: 0x0 }
  - { offset: 0x20BCA4, size: 0x8, addend: 0x0, symName: __ZN12holophotolib34gCHoloPhoto_global_registrator_objE, symObjAddr: 0x1BEEB0, symBinAddr: 0x2382A20, symSize: 0x0 }
  - { offset: 0x20BCE1, size: 0x8, addend: 0x0, symName: __ZN12holophotolib6getObjEv, symObjAddr: 0x50, symBinAddr: 0x49D0, symSize: 0x40 }
  - { offset: 0x21445F, size: 0x8, addend: 0x0, symName: __ZNSt3__18weak_ptrI10CHoloPhotoED1Ev, symObjAddr: 0x0, symBinAddr: 0x4980, symSize: 0x20 }
  - { offset: 0x214506, size: 0x8, addend: 0x0, symName: __ZN12holophotolib30gCHoloPhoto_global_registratorD1Ev, symObjAddr: 0x20, symBinAddr: 0x49A0, symSize: 0x30 }
  - { offset: 0x2146ED, size: 0x8, addend: 0x0, symName: __ZN12holophotolib30gCHoloPhoto_global_registratorC2Ev, symObjAddr: 0x90, symBinAddr: 0x4A10, symSize: 0x70 }
  - { offset: 0x2148A7, size: 0x8, addend: 0x0, symName: __ZN6common10modularity18ModuleOrchestrator9addModuleI10CHoloPhotoLb1EEEmRKSt16initializer_listI18eProcessGlCommandsE, symObjAddr: 0x100, symBinAddr: 0x4A80, symSize: 0x1A0 }
  - { offset: 0x215240, size: 0x8, addend: 0x0, symName: __ZN6common10modularity18ModuleOrchestrator12moduleObjectI10CHoloPhotoLb1EEENSt3__18weak_ptrIT_EEv, symObjAddr: 0x2A0, symBinAddr: 0x4C20, symSize: 0x120 }
  - { offset: 0x215F01, size: 0x8, addend: 0x0, symName: __ZNSt3__120__shared_ptr_emplaceI10CHoloPhotoNS_9allocatorIS1_EEED1Ev, symObjAddr: 0x4E0, symBinAddr: 0x4D40, symSize: 0x20 }
  - { offset: 0x215F59, size: 0x8, addend: 0x0, symName: __ZNSt3__120__shared_ptr_emplaceI10CHoloPhotoNS_9allocatorIS1_EEED0Ev, symObjAddr: 0x500, symBinAddr: 0x4D60, symSize: 0x30 }
  - { offset: 0x216046, size: 0x8, addend: 0x0, symName: __ZNSt3__120__shared_ptr_emplaceI10CHoloPhotoNS_9allocatorIS1_EEE16__on_zero_sharedEv, symObjAddr: 0x530, symBinAddr: 0x4D90, symSize: 0x10 }
  - { offset: 0x2160E8, size: 0x8, addend: 0x0, symName: __ZNSt3__120__shared_ptr_emplaceI10CHoloPhotoNS_9allocatorIS1_EEE21__on_zero_shared_weakEv, symObjAddr: 0x540, symBinAddr: 0x4DA0, symSize: 0xA }
  - { offset: 0x21836C, size: 0x8, addend: 0x0, symName: _gID3RusDocFastProcessExternal, symObjAddr: 0xD8A50, symBinAddr: 0x2382A30, symSize: 0x0 }
  - { offset: 0x22DAC9, size: 0x8, addend: 0x0, symName: __ZN17rusdocfastprocess6getObjEv, symObjAddr: 0x50, symBinAddr: 0x4EF0, symSize: 0x40 }
  - { offset: 0x232310, size: 0x8, addend: 0x0, symName: _gID3RusDocFastProcessExternal_global_registrator_obj, symObjAddr: 0xD8A60, symBinAddr: 0x2382A40, symSize: 0x0 }
  - { offset: 0x233ADA, size: 0x8, addend: 0x0, symName: __ZNSt3__18weak_ptrIN17rusdocfastprocess7ProcessEED1Ev, symObjAddr: 0x0, symBinAddr: 0x4EA0, symSize: 0x20 }
  - { offset: 0x233B81, size: 0x8, addend: 0x0, symName: __ZN48gID3RusDocFastProcessExternal_global_registratorD1Ev, symObjAddr: 0x20, symBinAddr: 0x4EC0, symSize: 0x30 }
  - { offset: 0x233D2F, size: 0x8, addend: 0x0, symName: __ZN48gID3RusDocFastProcessExternal_global_registratorC2Ev, symObjAddr: 0x90, symBinAddr: 0x4F30, symSize: 0x80 }
  - { offset: 0x233EAD, size: 0x8, addend: 0x0, symName: __ZN6common10modularity18ModuleOrchestrator9addModuleIN17rusdocfastprocess7ProcessELb1EEEmRKSt16initializer_listI18eProcessGlCommandsE, symObjAddr: 0x110, symBinAddr: 0x4FB0, symSize: 0x1A0 }
  - { offset: 0x234846, size: 0x8, addend: 0x0, symName: __ZN6common10modularity18ModuleOrchestrator12moduleObjectIN17rusdocfastprocess7ProcessELb1EEENSt3__18weak_ptrIT_EEv, symObjAddr: 0x2B0, symBinAddr: 0x5150, symSize: 0x120 }
  - { offset: 0x235507, size: 0x8, addend: 0x0, symName: __ZNSt3__120__shared_ptr_emplaceIN17rusdocfastprocess7ProcessENS_9allocatorIS2_EEED1Ev, symObjAddr: 0x4F0, symBinAddr: 0x5270, symSize: 0x20 }
  - { offset: 0x23555F, size: 0x8, addend: 0x0, symName: __ZNSt3__120__shared_ptr_emplaceIN17rusdocfastprocess7ProcessENS_9allocatorIS2_EEED0Ev, symObjAddr: 0x510, symBinAddr: 0x5290, symSize: 0x30 }
  - { offset: 0x23564C, size: 0x8, addend: 0x0, symName: __ZNSt3__120__shared_ptr_emplaceIN17rusdocfastprocess7ProcessENS_9allocatorIS2_EEE16__on_zero_sharedEv, symObjAddr: 0x540, symBinAddr: 0x52C0, symSize: 0x10 }
  - { offset: 0x2356EE, size: 0x8, addend: 0x0, symName: __ZNSt3__120__shared_ptr_emplaceIN17rusdocfastprocess7ProcessENS_9allocatorIS2_EEE21__on_zero_shared_weakEv, symObjAddr: 0x550, symBinAddr: 0x52D0, symSize: 0xA }
  - { offset: 0x237976, size: 0x8, addend: 0x0, symName: __ZN6common9resourcesL14dbStatusAbsentE, symObjAddr: 0x22A430, symBinAddr: 0x2399610, symSize: 0x0 }
  - { offset: 0x237990, size: 0x8, addend: 0x0, symName: __ZN6common9resourcesL17dbStatusIncorrectE, symObjAddr: 0x22A448, symBinAddr: 0x2399628, symSize: 0x0 }
  - { offset: 0x27F03B, size: 0x8, addend: 0x0, symName: __ZNSt3__127__tree_balance_after_insertB8ne180100IPNS_16__tree_node_baseIPvEEEEvT_S5_, symObjAddr: 0x780, symBinAddr: 0x5990, symSize: 0x160 }
  - { offset: 0x282501, size: 0x8, addend: 0x0, symName: __ZSt28__throw_bad_array_new_lengthB8ne180100v, symObjAddr: 0x170, symBinAddr: 0x5420, symSize: 0x40 }
  - { offset: 0x282647, size: 0x8, addend: 0x0, symName: __ZN5imseg8unicodesL15gArabianNumbersE, symObjAddr: 0x22A460, symBinAddr: 0x2399640, symSize: 0x0 }
  - { offset: 0x282661, size: 0x8, addend: 0x0, symName: __ZN5imseg8unicodesL18gArabianNumbersSetE, symObjAddr: 0x22A478, symBinAddr: 0x2399658, symSize: 0x0 }
  - { offset: 0x28267B, size: 0x8, addend: 0x0, symName: __ZN5imseg8unicodesL13gFarsiNumbersE, symObjAddr: 0x22A490, symBinAddr: 0x2399670, symSize: 0x0 }
  - { offset: 0x282695, size: 0x8, addend: 0x0, symName: __ZN5imseg8unicodesL16gFarsiNumbersSetE, symObjAddr: 0x22A4A8, symBinAddr: 0x2399688, symSize: 0x0 }
  - { offset: 0x2826AF, size: 0x8, addend: 0x0, symName: __ZN5imseg8unicodesL12gLatinDigitsE, symObjAddr: 0x22A4C0, symBinAddr: 0x23996A0, symSize: 0x0 }
  - { offset: 0x2826C9, size: 0x8, addend: 0x0, symName: __ZN5imseg8unicodesL13gChoseongJamoE, symObjAddr: 0x22A4D8, symBinAddr: 0x23996B8, symSize: 0x0 }
  - { offset: 0x2826E3, size: 0x8, addend: 0x0, symName: __ZN5imseg8unicodesL14gJungseongJamoE, symObjAddr: 0x22A4F0, symBinAddr: 0x23996D0, symSize: 0x0 }
  - { offset: 0x2826FD, size: 0x8, addend: 0x0, symName: __ZN5imseg8unicodesL14gJongseongJamoE, symObjAddr: 0x22A508, symBinAddr: 0x23996E8, symSize: 0x0 }
  - { offset: 0x282717, size: 0x8, addend: 0x0, symName: __ZN5imseg8unicodesL15gChoseongCompatE, symObjAddr: 0x22A520, symBinAddr: 0x2399700, symSize: 0x0 }
  - { offset: 0x282731, size: 0x8, addend: 0x0, symName: __ZN5imseg8unicodesL16gJungseongCompatE, symObjAddr: 0x22A538, symBinAddr: 0x2399718, symSize: 0x0 }
  - { offset: 0x28274B, size: 0x8, addend: 0x0, symName: __ZN5imseg8unicodesL16gJongseongCompatE, symObjAddr: 0x22A550, symBinAddr: 0x2399730, symSize: 0x0 }
  - { offset: 0x282765, size: 0x8, addend: 0x0, symName: __ZN5imseg8unicodesL18gChoseongHalfwidthE, symObjAddr: 0x22A568, symBinAddr: 0x2399748, symSize: 0x0 }
  - { offset: 0x28277F, size: 0x8, addend: 0x0, symName: __ZN5imseg8unicodesL19gJungseongHalfwidthE, symObjAddr: 0x22A580, symBinAddr: 0x2399760, symSize: 0x0 }
  - { offset: 0x282799, size: 0x8, addend: 0x0, symName: __ZN5imseg8unicodesL19gJongseongHalfwidthE, symObjAddr: 0x22A598, symBinAddr: 0x2399778, symSize: 0x0 }
  - { offset: 0x2827B3, size: 0x8, addend: 0x0, symName: __ZN5imseg8unicodesL28reversingFieldAllowedSymbolsE, symObjAddr: 0x22A5B0, symBinAddr: 0x2399790, symSize: 0x0 }
  - { offset: 0x2827D3, size: 0x8, addend: 0x0, symName: __ZN5imseg5lcidsL15gDevanagariFullE, symObjAddr: 0x22A5C8, symBinAddr: 0x23997A8, symSize: 0x0 }
  - { offset: 0x2827ED, size: 0x8, addend: 0x0, symName: __ZN5imseg5lcidsL8gBengaliE, symObjAddr: 0x22A5E0, symBinAddr: 0x23997C0, symSize: 0x0 }
  - { offset: 0x282807, size: 0x8, addend: 0x0, symName: __ZN5imseg5lcidsL8gSpanishE, symObjAddr: 0x22A5F8, symBinAddr: 0x23997D8, symSize: 0x0 }
  - { offset: 0x282821, size: 0x8, addend: 0x0, symName: __ZN5imseg5lcidsL11gArabicFullE, symObjAddr: 0x22A610, symBinAddr: 0x23997F0, symSize: 0x0 }
  - { offset: 0x28283B, size: 0x8, addend: 0x0, symName: __ZN5imseg5lcidsL16gArabicRetrainedE, symObjAddr: 0x22A628, symBinAddr: 0x2399808, symSize: 0x0 }
  - { offset: 0x282855, size: 0x8, addend: 0x0, symName: __ZN5imseg5lcidsL17gArabicQatarGroupE, symObjAddr: 0x22A640, symBinAddr: 0x2399820, symSize: 0x0 }
  - { offset: 0x28286F, size: 0x8, addend: 0x0, symName: __ZN5imseg5lcidsL10gMask2LcidE, symObjAddr: 0x22A658, symBinAddr: 0x2399838, symSize: 0x0 }
  - { offset: 0x28288A, size: 0x8, addend: 0x0, symName: __ZN5imseg14gImSegExternalE, symObjAddr: 0x22A670, symBinAddr: 0x2382A50, symSize: 0x0 }
  - { offset: 0x282D8F, size: 0x8, addend: 0x0, symName: __ZN5imseg37gImSegExternal_global_registrator_objE, symObjAddr: 0x22A680, symBinAddr: 0x2382A60, symSize: 0x0 }
  - { offset: 0x282DCC, size: 0x8, addend: 0x0, symName: __ZN5imseg6getObjEv, symObjAddr: 0xA0, symBinAddr: 0x53D0, symSize: 0x40 }
  - { offset: 0x28DACB, size: 0x8, addend: 0x0, symName: __ZNSt3__16vectorImNS_9allocatorImEEED1B8ne180100Ev, symObjAddr: 0x0, symBinAddr: 0x5330, symSize: 0x20 }
  - { offset: 0x28DC78, size: 0x8, addend: 0x0, symName: __ZNSt3__13setImNS_4lessImEENS_9allocatorImEEED1B8ne180100Ev, symObjAddr: 0x20, symBinAddr: 0x5350, symSize: 0x10 }
  - { offset: 0x28DD2B, size: 0x8, addend: 0x0, symName: __ZNSt3__16__treeImNS_4lessImEENS_9allocatorImEEE7destroyEPNS_11__tree_nodeImPvEE, symObjAddr: 0x600, symBinAddr: 0x5810, symSize: 0x40 }
  - { offset: 0x28DEE3, size: 0x8, addend: 0x0, symName: __ZNSt3__13setIiNS_4lessIiEENS_9allocatorIiEEED1B8ne180100Ev, symObjAddr: 0x30, symBinAddr: 0x5360, symSize: 0x10 }
  - { offset: 0x28E0D5, size: 0x8, addend: 0x0, symName: __ZNSt3__13mapIKNS_12basic_stringIwNS_11char_traitsIwEENS_9allocatorIwEEEEKiNS_4lessIS7_EENS4_INS_4pairIS7_S8_EEEEED1B8ne180100Ev, symObjAddr: 0x40, symBinAddr: 0x5370, symSize: 0x10 }
  - { offset: 0x28E188, size: 0x8, addend: 0x0, symName: __ZNSt3__16__treeINS_12__value_typeIKNS_12basic_stringIwNS_11char_traitsIwEENS_9allocatorIwEEEEKiEENS_19__map_value_compareIS8_SA_NS_4lessIS8_EELb1EEENS5_ISA_EEE7destroyEPNS_11__tree_nodeISA_PvEE, symObjAddr: 0x10F0, symBinAddr: 0x60D0, symSize: 0x42 }
  - { offset: 0x28E477, size: 0x8, addend: 0x0, symName: __ZNSt3__18weak_ptrIN5imseg12ImsegMultiThEED1Ev, symObjAddr: 0x50, symBinAddr: 0x5380, symSize: 0x20 }
  - { offset: 0x28E51E, size: 0x8, addend: 0x0, symName: __ZN5imseg33gImSegExternal_global_registratorD1Ev, symObjAddr: 0x70, symBinAddr: 0x53A0, symSize: 0x30 }
  - { offset: 0x28E60C, size: 0x8, addend: 0x0, symName: __ZNKSt3__112basic_stringIwNS_11char_traitsIwEENS_9allocatorIwEEE20__throw_length_errorB8ne180100Ev, symObjAddr: 0xE0, symBinAddr: 0x5410, symSize: 0x10 }
  - { offset: 0x28E765, size: 0x8, addend: 0x0, symName: __ZN5imseg33gImSegExternal_global_registratorC2Ev, symObjAddr: 0x1C0, symBinAddr: 0x5460, symSize: 0x80 }
  - { offset: 0x28E8E3, size: 0x8, addend: 0x0, symName: __ZN6common10modularity18ModuleOrchestrator9addModuleIN5imseg12ImsegMultiThELb1EEEmRKSt16initializer_listI18eProcessGlCommandsE, symObjAddr: 0x240, symBinAddr: 0x54E0, symSize: 0x1A0 }
  - { offset: 0x28F27C, size: 0x8, addend: 0x0, symName: __ZN6common10modularity18ModuleOrchestrator12moduleObjectIN5imseg12ImsegMultiThELb1EEENSt3__18weak_ptrIT_EEv, symObjAddr: 0x3E0, symBinAddr: 0x5680, symSize: 0x120 }
  - { offset: 0x28FC8D, size: 0x8, addend: 0x0, symName: __ZNSt3__120__shared_ptr_emplaceIN5imseg12ImsegMultiThENS_9allocatorIS2_EEED1Ev, symObjAddr: 0x590, symBinAddr: 0x57A0, symSize: 0x20 }
  - { offset: 0x28FEDE, size: 0x8, addend: 0x0, symName: __ZNSt3__120__shared_ptr_emplaceIN5imseg12ImsegMultiThENS_9allocatorIS2_EEED1Ev, symObjAddr: 0x590, symBinAddr: 0x57A0, symSize: 0x20 }
  - { offset: 0x28FF36, size: 0x8, addend: 0x0, symName: __ZNSt3__120__shared_ptr_emplaceIN5imseg12ImsegMultiThENS_9allocatorIS2_EEED0Ev, symObjAddr: 0x5B0, symBinAddr: 0x57C0, symSize: 0x30 }
  - { offset: 0x290023, size: 0x8, addend: 0x0, symName: __ZNSt3__120__shared_ptr_emplaceIN5imseg12ImsegMultiThENS_9allocatorIS2_EEE16__on_zero_sharedEv, symObjAddr: 0x5E0, symBinAddr: 0x57F0, symSize: 0x10 }
  - { offset: 0x2900C5, size: 0x8, addend: 0x0, symName: __ZNSt3__120__shared_ptr_emplaceIN5imseg12ImsegMultiThENS_9allocatorIS2_EEE21__on_zero_shared_weakEv, symObjAddr: 0x5F0, symBinAddr: 0x5800, symSize: 0x10 }
  - { offset: 0x29055F, size: 0x8, addend: 0x0, symName: __ZNSt3__13setImNS_4lessImEENS_9allocatorImEEE6insertB8ne180100INS_11__wrap_iterIPKmEEEEvT_SB_, symObjAddr: 0x640, symBinAddr: 0x5850, symSize: 0x140 }
  - { offset: 0x2905A7, size: 0x8, addend: 0x0, symName: __ZNSt3__13setImNS_4lessImEENS_9allocatorImEEE6insertB8ne180100INS_11__wrap_iterIPKmEEEEvT_SB_, symObjAddr: 0x640, symBinAddr: 0x5850, symSize: 0x140 }
  - { offset: 0x290CE0, size: 0x8, addend: 0x0, symName: __ZNSt3__16__treeINS_12__value_typeIKNS_12basic_stringIwNS_11char_traitsIwEENS_9allocatorIwEEEEKiEENS_19__map_value_compareIS8_SA_NS_4lessIS8_EELb1EEENS5_ISA_EEE30__emplace_hint_unique_key_argsIS7_JRKNS_4pairIS8_S9_EEEEENSI_INS_15__tree_iteratorISA_PNS_11__tree_nodeISA_PvEElEEbEENS_21__tree_const_iteratorISA_SQ_lEERKT_DpOT0_, symObjAddr: 0xA60, symBinAddr: 0x5AF0, symSize: 0xE0 }
  - { offset: 0x291146, size: 0x8, addend: 0x0, symName: __ZNSt3__16__treeINS_12__value_typeIKNS_12basic_stringIwNS_11char_traitsIwEENS_9allocatorIwEEEEKiEENS_19__map_value_compareIS8_SA_NS_4lessIS8_EELb1EEENS5_ISA_EEE12__find_equalIS7_EERPNS_16__tree_node_baseIPvEENS_21__tree_const_iteratorISA_PNS_11__tree_nodeISA_SJ_EElEERPNS_15__tree_end_nodeISL_EESM_RKT_, symObjAddr: 0xB40, symBinAddr: 0x5BD0, symSize: 0x350 }
  - { offset: 0x291FA6, size: 0x8, addend: 0x0, symName: __ZNSt3__16__treeINS_12__value_typeIKNS_12basic_stringIwNS_11char_traitsIwEENS_9allocatorIwEEEEKiEENS_19__map_value_compareIS8_SA_NS_4lessIS8_EELb1EEENS5_ISA_EEE12__find_equalIS7_EERPNS_16__tree_node_baseIPvEERPNS_15__tree_end_nodeISL_EERKT_, symObjAddr: 0xE90, symBinAddr: 0x5F20, symSize: 0x1B0 }
  - { offset: 0x2948E6, size: 0x8, addend: 0x0, symName: __ZN6common9resourcesL14dbStatusAbsentE, symObjAddr: 0x13B830, symBinAddr: 0x2399850, symSize: 0x0 }
  - { offset: 0x294900, size: 0x8, addend: 0x0, symName: __ZN6common9resourcesL17dbStatusIncorrectE, symObjAddr: 0x13B848, symBinAddr: 0x2399868, symSize: 0x0 }
  - { offset: 0x2B12CF, size: 0x8, addend: 0x0, symName: __ZN18imagequality_utilsL12gSoftmaxSizeE, symObjAddr: 0x13B860, symBinAddr: 0x2399880, symSize: 0x0 }
  - { offset: 0x2B1387, size: 0x8, addend: 0x0, symName: __ZN4rdnn25imagequality_mobile_focus5utilsL10gBlurClassE, symObjAddr: 0x13B868, symBinAddr: 0x2399888, symSize: 0x0 }
  - { offset: 0x2B13A1, size: 0x8, addend: 0x0, symName: __ZN4rdnn25imagequality_mobile_focus5utilsL11gFocusClassE, symObjAddr: 0x13B870, symBinAddr: 0x2399890, symSize: 0x0 }
  - { offset: 0x2B13BB, size: 0x8, addend: 0x0, symName: __ZN4rdnn25imagequality_mobile_focus5utilsL14gSubNormVectorE, symObjAddr: 0x13B880, symBinAddr: 0x23998A0, symSize: 0x0 }
  - { offset: 0x2B13D5, size: 0x8, addend: 0x0, symName: __ZN4rdnn25imagequality_mobile_focus5utilsL14gDivNormVectorE, symObjAddr: 0x13B8A0, symBinAddr: 0x23998C0, symSize: 0x0 }
  - { offset: 0x2B149A, size: 0x8, addend: 0x0, symName: __ZN4rdnn18imagequality_moire5utilsL14gSubNormVectorE, symObjAddr: 0x13B8C0, symBinAddr: 0x23998E0, symSize: 0x0 }
  - { offset: 0x2B14B4, size: 0x8, addend: 0x0, symName: __ZN4rdnn18imagequality_moire5utilsL14gDivNormVectorE, symObjAddr: 0x13B8E0, symBinAddr: 0x2399900, symSize: 0x0 }
  - { offset: 0x2B1E6F, size: 0x8, addend: 0x0, symName: __ZN12imagequality13gImageQualityE, symObjAddr: 0x13B900, symBinAddr: 0x2382A70, symSize: 0x0 }
  - { offset: 0x2B1E89, size: 0x8, addend: 0x0, symName: __ZN12imagequality36gImageQuality_global_registrator_objE, symObjAddr: 0x13B910, symBinAddr: 0x2382A80, symSize: 0x0 }
  - { offset: 0x2B5F56, size: 0x8, addend: 0x0, symName: __ZNSt3__18weak_ptrI12ImageQualityED1Ev, symObjAddr: 0x0, symBinAddr: 0x6D70, symSize: 0x20 }
  - { offset: 0x2B5FFD, size: 0x8, addend: 0x0, symName: __ZN12imagequality32gImageQuality_global_registratorD1Ev, symObjAddr: 0x20, symBinAddr: 0x6D90, symSize: 0x30 }
  - { offset: 0x2B6182, size: 0x8, addend: 0x0, symName: __ZN12imagequality32gImageQuality_global_registratorC2Ev, symObjAddr: 0x50, symBinAddr: 0x6DC0, symSize: 0x70 }
  - { offset: 0x2B633C, size: 0x8, addend: 0x0, symName: __ZN6common10modularity18ModuleOrchestrator9addModuleI12ImageQualityLb1EEEmRKSt16initializer_listI18eProcessGlCommandsE, symObjAddr: 0xC0, symBinAddr: 0x6E30, symSize: 0x1A0 }
  - { offset: 0x2B6CD5, size: 0x8, addend: 0x0, symName: __ZN6common10modularity18ModuleOrchestrator12moduleObjectI12ImageQualityLb1EEENSt3__18weak_ptrIT_EEv, symObjAddr: 0x260, symBinAddr: 0x6FD0, symSize: 0xF0 }
  - { offset: 0x2B79B0, size: 0x8, addend: 0x0, symName: __ZNSt3__120__shared_ptr_emplaceI12ImageQualityNS_9allocatorIS1_EEED1Ev, symObjAddr: 0x470, symBinAddr: 0x70C0, symSize: 0x20 }
  - { offset: 0x2B7A08, size: 0x8, addend: 0x0, symName: __ZNSt3__120__shared_ptr_emplaceI12ImageQualityNS_9allocatorIS1_EEED0Ev, symObjAddr: 0x490, symBinAddr: 0x70E0, symSize: 0x30 }
  - { offset: 0x2B7B11, size: 0x8, addend: 0x0, symName: __ZNSt3__120__shared_ptr_emplaceI12ImageQualityNS_9allocatorIS1_EEE16__on_zero_sharedEv, symObjAddr: 0x4C0, symBinAddr: 0x7110, symSize: 0x10 }
  - { offset: 0x2B7BD9, size: 0x8, addend: 0x0, symName: __ZN12ImageQualityD2Ev, symObjAddr: 0x4E0, symBinAddr: 0x7130, symSize: 0x3F0 }
  - { offset: 0x2B98EE, size: 0x8, addend: 0x0, symName: __ZNSt3__120__shared_ptr_emplaceI12ImageQualityNS_9allocatorIS1_EEE21__on_zero_shared_weakEv, symObjAddr: 0x4D0, symBinAddr: 0x7120, symSize: 0x10 }
  - { offset: 0x2BA296, size: 0x8, addend: 0x0, symName: __ZNSt3__16__treeINS_12__value_typeIi12eCheckResultEENS_19__map_value_compareIiS3_NS_4lessIiEELb1EEENS_9allocatorIS3_EEE7destroyEPNS_11__tree_nodeIS3_PvEE, symObjAddr: 0x9B0, symBinAddr: 0x7520, symSize: 0x33 }
  - { offset: 0x2BC82D, size: 0x8, addend: 0x0, symName: __ZN7imaging8gImagingE, symObjAddr: 0x9ADD0, symBinAddr: 0x2382A90, symSize: 0x0 }
  - { offset: 0x2BC8C3, size: 0x8, addend: 0x0, symName: __ZN7imaging31gImaging_global_registrator_objE, symObjAddr: 0x9ADE0, symBinAddr: 0x2382AA0, symSize: 0x0 }
  - { offset: 0x2BC900, size: 0x8, addend: 0x0, symName: __ZN7imaging6getObjEv, symObjAddr: 0x50, symBinAddr: 0x7740, symSize: 0x40 }
  - { offset: 0x2D00E2, size: 0x8, addend: 0x0, symName: __ZNSt3__18weak_ptrIN7imaging7ImagingEED1Ev, symObjAddr: 0x0, symBinAddr: 0x76F0, symSize: 0x20 }
  - { offset: 0x2D0189, size: 0x8, addend: 0x0, symName: __ZN7imaging27gImaging_global_registratorD1Ev, symObjAddr: 0x20, symBinAddr: 0x7710, symSize: 0x30 }
  - { offset: 0x2D0370, size: 0x8, addend: 0x0, symName: __ZN7imaging27gImaging_global_registratorC2Ev, symObjAddr: 0x90, symBinAddr: 0x7780, symSize: 0x70 }
  - { offset: 0x2D052A, size: 0x8, addend: 0x0, symName: __ZN6common10modularity18ModuleOrchestrator9addModuleIN7imaging7ImagingELb1EEEmRKSt16initializer_listI18eProcessGlCommandsE, symObjAddr: 0x100, symBinAddr: 0x77F0, symSize: 0x1A0 }
  - { offset: 0x2D0EC1, size: 0x8, addend: 0x0, symName: __ZN6common10modularity18ModuleOrchestrator12moduleObjectIN7imaging7ImagingELb1EEENSt3__18weak_ptrIT_EEv, symObjAddr: 0x2A0, symBinAddr: 0x7990, symSize: 0x120 }
  - { offset: 0x2D1B82, size: 0x8, addend: 0x0, symName: __ZNSt3__120__shared_ptr_emplaceIN7imaging7ImagingENS_9allocatorIS2_EEED1Ev, symObjAddr: 0x4E0, symBinAddr: 0x7AB0, symSize: 0x20 }
  - { offset: 0x2D1BDA, size: 0x8, addend: 0x0, symName: __ZNSt3__120__shared_ptr_emplaceIN7imaging7ImagingENS_9allocatorIS2_EEED0Ev, symObjAddr: 0x500, symBinAddr: 0x7AD0, symSize: 0x30 }
  - { offset: 0x2D1CC7, size: 0x8, addend: 0x0, symName: __ZNSt3__120__shared_ptr_emplaceIN7imaging7ImagingENS_9allocatorIS2_EEE16__on_zero_sharedEv, symObjAddr: 0x530, symBinAddr: 0x7B00, symSize: 0x10 }
  - { offset: 0x2D1D69, size: 0x8, addend: 0x0, symName: __ZNSt3__120__shared_ptr_emplaceIN7imaging7ImagingENS_9allocatorIS2_EEE21__on_zero_shared_weakEv, symObjAddr: 0x540, symBinAddr: 0x7B10, symSize: 0xA }
  - { offset: 0x2D4074, size: 0x8, addend: 0x0, symName: __ZN14jabcode_reader14gJabcodeReaderE, symObjAddr: 0x9A950, symBinAddr: 0x2382AB0, symSize: 0x0 }
  - { offset: 0x2D408E, size: 0x8, addend: 0x0, symName: __ZN14jabcode_reader37gJabcodeReader_global_registrator_objE, symObjAddr: 0x9A960, symBinAddr: 0x2382AC0, symSize: 0x0 }
  - { offset: 0x2D40CB, size: 0x8, addend: 0x0, symName: __ZN14jabcode_reader6getObjEv, symObjAddr: 0x50, symBinAddr: 0x7BC0, symSize: 0x40 }
  - { offset: 0x2E7A1D, size: 0x8, addend: 0x0, symName: __ZNSt3__18weak_ptrI13JabcodeReaderED1Ev, symObjAddr: 0x0, symBinAddr: 0x7B70, symSize: 0x20 }
  - { offset: 0x2E7AC4, size: 0x8, addend: 0x0, symName: __ZN14jabcode_reader33gJabcodeReader_global_registratorD1Ev, symObjAddr: 0x20, symBinAddr: 0x7B90, symSize: 0x30 }
  - { offset: 0x2E7CAB, size: 0x8, addend: 0x0, symName: __ZN14jabcode_reader33gJabcodeReader_global_registratorC2Ev, symObjAddr: 0x90, symBinAddr: 0x7C00, symSize: 0x70 }
  - { offset: 0x2E7E65, size: 0x8, addend: 0x0, symName: __ZN6common10modularity18ModuleOrchestrator9addModuleI13JabcodeReaderLb1EEEmRKSt16initializer_listI18eProcessGlCommandsE, symObjAddr: 0x100, symBinAddr: 0x7C70, symSize: 0x1A0 }
  - { offset: 0x2E87FE, size: 0x8, addend: 0x0, symName: __ZN6common10modularity18ModuleOrchestrator12moduleObjectI13JabcodeReaderLb1EEENSt3__18weak_ptrIT_EEv, symObjAddr: 0x2A0, symBinAddr: 0x7E10, symSize: 0x120 }
  - { offset: 0x2E94BF, size: 0x8, addend: 0x0, symName: __ZNSt3__120__shared_ptr_emplaceI13JabcodeReaderNS_9allocatorIS1_EEED1Ev, symObjAddr: 0x4E0, symBinAddr: 0x7F30, symSize: 0x20 }
  - { offset: 0x2E9517, size: 0x8, addend: 0x0, symName: __ZNSt3__120__shared_ptr_emplaceI13JabcodeReaderNS_9allocatorIS1_EEED0Ev, symObjAddr: 0x500, symBinAddr: 0x7F50, symSize: 0x30 }
  - { offset: 0x2E9604, size: 0x8, addend: 0x0, symName: __ZNSt3__120__shared_ptr_emplaceI13JabcodeReaderNS_9allocatorIS1_EEE16__on_zero_sharedEv, symObjAddr: 0x530, symBinAddr: 0x7F80, symSize: 0x10 }
  - { offset: 0x2E96A6, size: 0x8, addend: 0x0, symName: __ZNSt3__120__shared_ptr_emplaceI13JabcodeReaderNS_9allocatorIS1_EEE21__on_zero_shared_weakEv, symObjAddr: 0x540, symBinAddr: 0x7F90, symSize: 0xA }
  - { offset: 0x2EB9C0, size: 0x8, addend: 0x0, symName: _gLex, symObjAddr: 0x2EF880, symBinAddr: 0x2382AD0, symSize: 0x0 }
  - { offset: 0x3451FE, size: 0x8, addend: 0x0, symName: _gLex_global_registrator_obj, symObjAddr: 0x2EF890, symBinAddr: 0x2382AE0, symSize: 0x0 }
  - { offset: 0x3471C8, size: 0x8, addend: 0x0, symName: __ZNSt3__18weak_ptrI4CLexED1Ev, symObjAddr: 0x0, symBinAddr: 0x7FF0, symSize: 0x20 }
  - { offset: 0x34726F, size: 0x8, addend: 0x0, symName: __ZN23gLex_global_registratorD1Ev, symObjAddr: 0x20, symBinAddr: 0x8010, symSize: 0x30 }
  - { offset: 0x3473F4, size: 0x8, addend: 0x0, symName: __ZN23gLex_global_registratorC2Ev, symObjAddr: 0x50, symBinAddr: 0x8040, symSize: 0x70 }
  - { offset: 0x3475AE, size: 0x8, addend: 0x0, symName: __ZN6common10modularity18ModuleOrchestrator9addModuleI4CLexLb1EEEmRKSt16initializer_listI18eProcessGlCommandsE, symObjAddr: 0xC0, symBinAddr: 0x80B0, symSize: 0x1A0 }
  - { offset: 0x347F47, size: 0x8, addend: 0x0, symName: __ZN6common10modularity18ModuleOrchestrator12moduleObjectI4CLexLb1EEENSt3__18weak_ptrIT_EEv, symObjAddr: 0x260, symBinAddr: 0x8250, symSize: 0x120 }
  - { offset: 0x348C0D, size: 0x8, addend: 0x0, symName: __ZNSt3__120__shared_ptr_emplaceI4CLexNS_9allocatorIS1_EEED1Ev, symObjAddr: 0x4A0, symBinAddr: 0x8370, symSize: 0x20 }
  - { offset: 0x348C65, size: 0x8, addend: 0x0, symName: __ZNSt3__120__shared_ptr_emplaceI4CLexNS_9allocatorIS1_EEED0Ev, symObjAddr: 0x4C0, symBinAddr: 0x8390, symSize: 0x30 }
  - { offset: 0x348D52, size: 0x8, addend: 0x0, symName: __ZNSt3__120__shared_ptr_emplaceI4CLexNS_9allocatorIS1_EEE16__on_zero_sharedEv, symObjAddr: 0x4F0, symBinAddr: 0x83C0, symSize: 0x10 }
  - { offset: 0x348DF4, size: 0x8, addend: 0x0, symName: __ZNSt3__120__shared_ptr_emplaceI4CLexNS_9allocatorIS1_EEE21__on_zero_shared_weakEv, symObjAddr: 0x500, symBinAddr: 0x83D0, symSize: 0xA }
  - { offset: 0x34B35B, size: 0x8, addend: 0x0, symName: __ZN4mdlr18gMDLReaderExternalE, symObjAddr: 0xE10F0, symBinAddr: 0x2382AF0, symSize: 0x0 }
  - { offset: 0x34B4C6, size: 0x8, addend: 0x0, symName: __ZN4mdlr41gMDLReaderExternal_global_registrator_objE, symObjAddr: 0xE1100, symBinAddr: 0x2382B00, symSize: 0x0 }
  - { offset: 0x34B503, size: 0x8, addend: 0x0, symName: __ZN4mdlr6getObjEv, symObjAddr: 0x50, symBinAddr: 0x8480, symSize: 0x40 }
  - { offset: 0x366AA4, size: 0x8, addend: 0x0, symName: __ZNSt3__18weak_ptrIN4mdlr16MDLReaderProcessEED1Ev, symObjAddr: 0x0, symBinAddr: 0x8430, symSize: 0x20 }
  - { offset: 0x366B4B, size: 0x8, addend: 0x0, symName: __ZN4mdlr37gMDLReaderExternal_global_registratorD1Ev, symObjAddr: 0x20, symBinAddr: 0x8450, symSize: 0x30 }
  - { offset: 0x366D32, size: 0x8, addend: 0x0, symName: __ZN4mdlr37gMDLReaderExternal_global_registratorC2Ev, symObjAddr: 0x90, symBinAddr: 0x84C0, symSize: 0x70 }
  - { offset: 0x366EEC, size: 0x8, addend: 0x0, symName: __ZN6common10modularity18ModuleOrchestrator9addModuleIN4mdlr16MDLReaderProcessELb1EEEmRKSt16initializer_listI18eProcessGlCommandsE, symObjAddr: 0x100, symBinAddr: 0x8530, symSize: 0x1A0 }
  - { offset: 0x367883, size: 0x8, addend: 0x0, symName: __ZN6common10modularity18ModuleOrchestrator12moduleObjectIN4mdlr16MDLReaderProcessELb1EEENSt3__18weak_ptrIT_EEv, symObjAddr: 0x2A0, symBinAddr: 0x86D0, symSize: 0x120 }
  - { offset: 0x368544, size: 0x8, addend: 0x0, symName: __ZNSt3__120__shared_ptr_emplaceIN4mdlr16MDLReaderProcessENS_9allocatorIS2_EEED1Ev, symObjAddr: 0x4E0, symBinAddr: 0x87F0, symSize: 0x20 }
  - { offset: 0x36859C, size: 0x8, addend: 0x0, symName: __ZNSt3__120__shared_ptr_emplaceIN4mdlr16MDLReaderProcessENS_9allocatorIS2_EEED0Ev, symObjAddr: 0x500, symBinAddr: 0x8810, symSize: 0x30 }
  - { offset: 0x368689, size: 0x8, addend: 0x0, symName: __ZNSt3__120__shared_ptr_emplaceIN4mdlr16MDLReaderProcessENS_9allocatorIS2_EEE16__on_zero_sharedEv, symObjAddr: 0x530, symBinAddr: 0x8840, symSize: 0x10 }
  - { offset: 0x36872B, size: 0x8, addend: 0x0, symName: __ZNSt3__120__shared_ptr_emplaceIN4mdlr16MDLReaderProcessENS_9allocatorIS2_EEE21__on_zero_shared_weakEv, symObjAddr: 0x540, symBinAddr: 0x8850, symSize: 0xA }
  - { offset: 0x36AFC1, size: 0x8, addend: 0x0, symName: __ZN11mrzdetector15gMRZDetectorExtE, symObjAddr: 0x1302A0, symBinAddr: 0x2382B10, symSize: 0x0 }
  - { offset: 0x36AFDB, size: 0x8, addend: 0x0, symName: __ZN11mrzdetector38gMRZDetectorExt_global_registrator_objE, symObjAddr: 0x1302B0, symBinAddr: 0x2382B20, symSize: 0x0 }
  - { offset: 0x36B018, size: 0x8, addend: 0x0, symName: __ZN11mrzdetector6getObjEv, symObjAddr: 0x50, symBinAddr: 0x8900, symSize: 0x40 }
  - { offset: 0x39CAAC, size: 0x8, addend: 0x0, symName: __ZNSt3__18weak_ptrI14MRZDetectorExtED1Ev, symObjAddr: 0x0, symBinAddr: 0x88B0, symSize: 0x20 }
  - { offset: 0x39CB53, size: 0x8, addend: 0x0, symName: __ZN11mrzdetector34gMRZDetectorExt_global_registratorD1Ev, symObjAddr: 0x20, symBinAddr: 0x88D0, symSize: 0x30 }
  - { offset: 0x39CD3A, size: 0x8, addend: 0x0, symName: __ZN11mrzdetector34gMRZDetectorExt_global_registratorC2Ev, symObjAddr: 0x90, symBinAddr: 0x8940, symSize: 0x70 }
  - { offset: 0x39CEF4, size: 0x8, addend: 0x0, symName: __ZN6common10modularity18ModuleOrchestrator9addModuleI14MRZDetectorExtLb1EEEmRKSt16initializer_listI18eProcessGlCommandsE, symObjAddr: 0x100, symBinAddr: 0x89B0, symSize: 0x1A0 }
  - { offset: 0x39D88D, size: 0x8, addend: 0x0, symName: __ZN6common10modularity18ModuleOrchestrator12moduleObjectI14MRZDetectorExtLb1EEENSt3__18weak_ptrIT_EEv, symObjAddr: 0x2A0, symBinAddr: 0x8B50, symSize: 0x120 }
  - { offset: 0x39E54E, size: 0x8, addend: 0x0, symName: __ZNSt3__120__shared_ptr_emplaceI14MRZDetectorExtNS_9allocatorIS1_EEED1Ev, symObjAddr: 0x4E0, symBinAddr: 0x8C70, symSize: 0x20 }
  - { offset: 0x39E5A6, size: 0x8, addend: 0x0, symName: __ZNSt3__120__shared_ptr_emplaceI14MRZDetectorExtNS_9allocatorIS1_EEED0Ev, symObjAddr: 0x500, symBinAddr: 0x8C90, symSize: 0x30 }
  - { offset: 0x39E693, size: 0x8, addend: 0x0, symName: __ZNSt3__120__shared_ptr_emplaceI14MRZDetectorExtNS_9allocatorIS1_EEE16__on_zero_sharedEv, symObjAddr: 0x530, symBinAddr: 0x8CC0, symSize: 0x10 }
  - { offset: 0x39E735, size: 0x8, addend: 0x0, symName: __ZNSt3__120__shared_ptr_emplaceI14MRZDetectorExtNS_9allocatorIS1_EEE21__on_zero_shared_weakEv, symObjAddr: 0x540, symBinAddr: 0x8CD0, symSize: 0xA }
  - { offset: 0x3A09AF, size: 0x8, addend: 0x0, symName: __ZN6common9resourcesL14dbStatusAbsentE, symObjAddr: 0x11F2E8, symBinAddr: 0x2399920, symSize: 0x0 }
  - { offset: 0x3A09C9, size: 0x8, addend: 0x0, symName: __ZN6common9resourcesL17dbStatusIncorrectE, symObjAddr: 0x11F300, symBinAddr: 0x2399938, symSize: 0x0 }
  - { offset: 0x3B85B2, size: 0x8, addend: 0x0, symName: _gNN, symObjAddr: 0x11F320, symBinAddr: 0x2382B30, symSize: 0x0 }
  - { offset: 0x3BA0D8, size: 0x8, addend: 0x0, symName: __ZN2nn6getObjEv, symObjAddr: 0x50, symBinAddr: 0x8D80, symSize: 0x40 }
  - { offset: 0x3BAB74, size: 0x8, addend: 0x0, symName: _gNN_global_registrator_obj, symObjAddr: 0x11F330, symBinAddr: 0x2382B40, symSize: 0x0 }
  - { offset: 0x3BC325, size: 0x8, addend: 0x0, symName: __ZNSt3__18weak_ptrI2NNED1Ev, symObjAddr: 0x0, symBinAddr: 0x8D30, symSize: 0x20 }
  - { offset: 0x3BC3CC, size: 0x8, addend: 0x0, symName: __ZN22gNN_global_registratorD1Ev, symObjAddr: 0x20, symBinAddr: 0x8D50, symSize: 0x30 }
  - { offset: 0x3BC5B3, size: 0x8, addend: 0x0, symName: __ZN22gNN_global_registratorC2Ev, symObjAddr: 0x90, symBinAddr: 0x8DC0, symSize: 0x70 }
  - { offset: 0x3BC76D, size: 0x8, addend: 0x0, symName: __ZN6common10modularity18ModuleOrchestrator9addModuleI2NNLb1EEEmRKSt16initializer_listI18eProcessGlCommandsE, symObjAddr: 0x100, symBinAddr: 0x8E30, symSize: 0x1A0 }
  - { offset: 0x3BD106, size: 0x8, addend: 0x0, symName: __ZN6common10modularity18ModuleOrchestrator12moduleObjectI2NNLb1EEENSt3__18weak_ptrIT_EEv, symObjAddr: 0x2A0, symBinAddr: 0x8FD0, symSize: 0x120 }
  - { offset: 0x3BDDC7, size: 0x8, addend: 0x0, symName: __ZNSt3__120__shared_ptr_emplaceI2NNNS_9allocatorIS1_EEED1Ev, symObjAddr: 0x4E0, symBinAddr: 0x90F0, symSize: 0x20 }
  - { offset: 0x3BDE1F, size: 0x8, addend: 0x0, symName: __ZNSt3__120__shared_ptr_emplaceI2NNNS_9allocatorIS1_EEED0Ev, symObjAddr: 0x500, symBinAddr: 0x9110, symSize: 0x30 }
  - { offset: 0x3BDF0C, size: 0x8, addend: 0x0, symName: __ZNSt3__120__shared_ptr_emplaceI2NNNS_9allocatorIS1_EEE16__on_zero_sharedEv, symObjAddr: 0x530, symBinAddr: 0x9140, symSize: 0x10 }
  - { offset: 0x3BDFAE, size: 0x8, addend: 0x0, symName: __ZNSt3__120__shared_ptr_emplaceI2NNNS_9allocatorIS1_EEE21__on_zero_shared_weakEv, symObjAddr: 0x540, symBinAddr: 0x9150, symSize: 0xA }
  - { offset: 0x3C0236, size: 0x8, addend: 0x0, symName: __ZN12pdf417readerL3redE, symObjAddr: 0x103DD0, symBinAddr: 0x2399950, symSize: 0x0 }
  - { offset: 0x3C0250, size: 0x8, addend: 0x0, symName: __ZN12pdf417readerL4blueE, symObjAddr: 0x103DF0, symBinAddr: 0x2399970, symSize: 0x0 }
  - { offset: 0x3C026A, size: 0x8, addend: 0x0, symName: __ZN12pdf417readerL5greenE, symObjAddr: 0x103E10, symBinAddr: 0x2399990, symSize: 0x0 }
  - { offset: 0x3C0284, size: 0x8, addend: 0x0, symName: __ZN12pdf417readerL5whiteE, symObjAddr: 0x103E30, symBinAddr: 0x23999B0, symSize: 0x0 }
  - { offset: 0x3C029E, size: 0x8, addend: 0x0, symName: __ZN12pdf417readerL5blackE, symObjAddr: 0x103E50, symBinAddr: 0x23999D0, symSize: 0x0 }
  - { offset: 0x3C02B8, size: 0x8, addend: 0x0, symName: __ZN12pdf417readerL17g_BarcodeDetectorE, symObjAddr: 0x103E70, symBinAddr: 0x23999F0, symSize: 0x0 }
  - { offset: 0x3C1698, size: 0x8, addend: 0x0, symName: __ZN12pdf417reader14gPDF417ManagerE, symObjAddr: 0x103E80, symBinAddr: 0x2382B50, symSize: 0x0 }
  - { offset: 0x3C2337, size: 0x8, addend: 0x0, symName: __ZN12pdf417reader37gPDF417Manager_global_registrator_objE, symObjAddr: 0x103E90, symBinAddr: 0x2382B60, symSize: 0x0 }
  - { offset: 0x3C2374, size: 0x8, addend: 0x0, symName: __ZN12pdf417reader6getObjEv, symObjAddr: 0x50, symBinAddr: 0x92A0, symSize: 0x40 }
  - { offset: 0x3E7321, size: 0x8, addend: 0x0, symName: __ZNSt3__18weak_ptrIN12pdf417reader15CBarcodeManagerEED1Ev, symObjAddr: 0x0, symBinAddr: 0x9250, symSize: 0x20 }
  - { offset: 0x3E73C8, size: 0x8, addend: 0x0, symName: __ZN12pdf417reader33gPDF417Manager_global_registratorD1Ev, symObjAddr: 0x20, symBinAddr: 0x9270, symSize: 0x30 }
  - { offset: 0x3E75AF, size: 0x8, addend: 0x0, symName: __ZN12pdf417reader33gPDF417Manager_global_registratorC2Ev, symObjAddr: 0x90, symBinAddr: 0x92E0, symSize: 0x70 }
  - { offset: 0x3E7769, size: 0x8, addend: 0x0, symName: __ZN6common10modularity18ModuleOrchestrator9addModuleIN12pdf417reader15CBarcodeManagerELb1EEEmRKSt16initializer_listI18eProcessGlCommandsE, symObjAddr: 0x100, symBinAddr: 0x9350, symSize: 0x1A0 }
  - { offset: 0x3E8102, size: 0x8, addend: 0x0, symName: __ZN6common10modularity18ModuleOrchestrator12moduleObjectIN12pdf417reader15CBarcodeManagerELb1EEENSt3__18weak_ptrIT_EEv, symObjAddr: 0x2A0, symBinAddr: 0x94F0, symSize: 0x120 }
  - { offset: 0x3E8DC3, size: 0x8, addend: 0x0, symName: __ZNSt3__120__shared_ptr_emplaceIN12pdf417reader15CBarcodeManagerENS_9allocatorIS2_EEED1Ev, symObjAddr: 0x4E0, symBinAddr: 0x9610, symSize: 0x20 }
  - { offset: 0x3E8E1B, size: 0x8, addend: 0x0, symName: __ZNSt3__120__shared_ptr_emplaceIN12pdf417reader15CBarcodeManagerENS_9allocatorIS2_EEED0Ev, symObjAddr: 0x500, symBinAddr: 0x9630, symSize: 0x30 }
  - { offset: 0x3E8F08, size: 0x8, addend: 0x0, symName: __ZNSt3__120__shared_ptr_emplaceIN12pdf417reader15CBarcodeManagerENS_9allocatorIS2_EEE16__on_zero_sharedEv, symObjAddr: 0x530, symBinAddr: 0x9660, symSize: 0x10 }
  - { offset: 0x3E8FAA, size: 0x8, addend: 0x0, symName: __ZNSt3__120__shared_ptr_emplaceIN12pdf417reader15CBarcodeManagerENS_9allocatorIS2_EEE21__on_zero_shared_weakEv, symObjAddr: 0x540, symBinAddr: 0x9670, symSize: 0xA }
  - { offset: 0x3EB24A, size: 0x8, addend: 0x0, symName: __ZN6PoDoFoL20PODOFO_BUILTIN_FONTSE, symObjAddr: 0xF9B10, symBinAddr: 0x2399A00, symSize: 0x0 }
  - { offset: 0x3F1F9D, size: 0x8, addend: 0x0, symName: __ZN6PoDoFoL17CHAR_DATA_COURIERE, symObjAddr: 0x1120, symBinAddr: 0x1F948A0, symSize: 0x0 }
  - { offset: 0x3F1FB8, size: 0x8, addend: 0x0, symName: __ZN6PoDoFoL22CHAR_DATA_COURIER_BOLDE, symObjAddr: 0x1890, symBinAddr: 0x1F95010, symSize: 0x0 }
  - { offset: 0x3F1FD3, size: 0x8, addend: 0x0, symName: __ZN6PoDoFoL25CHAR_DATA_COURIER_OBLIQUEE, symObjAddr: 0x2000, symBinAddr: 0x1F95780, symSize: 0x0 }
  - { offset: 0x3F1FEE, size: 0x8, addend: 0x0, symName: __ZN6PoDoFoL30CHAR_DATA_COURIER_BOLD_OBLIQUEE, symObjAddr: 0x2770, symBinAddr: 0x1F95EF0, symSize: 0x0 }
  - { offset: 0x3F2009, size: 0x8, addend: 0x0, symName: __ZN6PoDoFoL19CHAR_DATA_HELVETICAE, symObjAddr: 0x2EE0, symBinAddr: 0x1F96660, symSize: 0x0 }
  - { offset: 0x3F2024, size: 0x8, addend: 0x0, symName: __ZN6PoDoFoL24CHAR_DATA_HELVETICA_BOLDE, symObjAddr: 0x3650, symBinAddr: 0x1F96DD0, symSize: 0x0 }
  - { offset: 0x3F203F, size: 0x8, addend: 0x0, symName: __ZN6PoDoFoL27CHAR_DATA_HELVETICA_OBLIQUEE, symObjAddr: 0x3DC0, symBinAddr: 0x1F97540, symSize: 0x0 }
  - { offset: 0x3F205A, size: 0x8, addend: 0x0, symName: __ZN6PoDoFoL32CHAR_DATA_HELVETICA_BOLD_OBLIQUEE, symObjAddr: 0x4530, symBinAddr: 0x1F97CB0, symSize: 0x0 }
  - { offset: 0x3F2075, size: 0x8, addend: 0x0, symName: __ZN6PoDoFoL21CHAR_DATA_TIMES_ROMANE, symObjAddr: 0x4CA0, symBinAddr: 0x1F98420, symSize: 0x0 }
  - { offset: 0x3F2090, size: 0x8, addend: 0x0, symName: __ZN6PoDoFoL20CHAR_DATA_TIMES_BOLDE, symObjAddr: 0x5410, symBinAddr: 0x1F98B90, symSize: 0x0 }
  - { offset: 0x3F20AB, size: 0x8, addend: 0x0, symName: __ZN6PoDoFoL22CHAR_DATA_TIMES_ITALICE, symObjAddr: 0x5B80, symBinAddr: 0x1F99300, symSize: 0x0 }
  - { offset: 0x3F20C6, size: 0x8, addend: 0x0, symName: __ZN6PoDoFoL27CHAR_DATA_TIMES_BOLD_ITALICE, symObjAddr: 0x62F0, symBinAddr: 0x1F99A70, symSize: 0x0 }
  - { offset: 0x3F20E1, size: 0x8, addend: 0x0, symName: __ZN6PoDoFoL16CHAR_DATA_SYMBOLE, symObjAddr: 0x6A60, symBinAddr: 0x1F9A1E0, symSize: 0x0 }
  - { offset: 0x3F20FC, size: 0x8, addend: 0x0, symName: __ZN6PoDoFoL23CHAR_DATA_ZAPF_DINGBATSE, symObjAddr: 0x6EE0, symBinAddr: 0x1F9A660, symSize: 0x0 }
  - { offset: 0x411C86, size: 0x8, addend: 0x0, symName: __ZN9extractorL14MIN_IMAGE_SIZEE, symObjAddr: 0xFAA88, symBinAddr: 0x239A978, symSize: 0x0 }
  - { offset: 0x411D1B, size: 0x8, addend: 0x0, symName: __ZN12pdfConverter13gPDFConverterE, symObjAddr: 0xFAA90, symBinAddr: 0x2382B70, symSize: 0x0 }
  - { offset: 0x411E15, size: 0x8, addend: 0x0, symName: __ZN12pdfConverter36gPDFConverter_global_registrator_objE, symObjAddr: 0xFAAA0, symBinAddr: 0x2382B80, symSize: 0x0 }
  - { offset: 0x415B6E, size: 0x8, addend: 0x0, symName: __ZNSt3__18weak_ptrIN12pdfConverter14PDFConverterGlEED1Ev, symObjAddr: 0x0, symBinAddr: 0x9760, symSize: 0x20 }
  - { offset: 0x415C15, size: 0x8, addend: 0x0, symName: __ZN12pdfConverter32gPDFConverter_global_registratorD1Ev, symObjAddr: 0x20, symBinAddr: 0x9780, symSize: 0x30 }
  - { offset: 0x415D9A, size: 0x8, addend: 0x0, symName: __ZN12pdfConverter32gPDFConverter_global_registratorC2Ev, symObjAddr: 0x50, symBinAddr: 0x97B0, symSize: 0x70 }
  - { offset: 0x415F54, size: 0x8, addend: 0x0, symName: __ZN6common10modularity18ModuleOrchestrator9addModuleIN12pdfConverter14PDFConverterGlELb1EEEmRKSt16initializer_listI18eProcessGlCommandsE, symObjAddr: 0xC0, symBinAddr: 0x9820, symSize: 0x1A0 }
  - { offset: 0x4168ED, size: 0x8, addend: 0x0, symName: __ZN6common10modularity18ModuleOrchestrator12moduleObjectIN12pdfConverter14PDFConverterGlELb1EEENSt3__18weak_ptrIT_EEv, symObjAddr: 0x260, symBinAddr: 0x99C0, symSize: 0x120 }
  - { offset: 0x4175B3, size: 0x8, addend: 0x0, symName: __ZNSt3__120__shared_ptr_emplaceIN12pdfConverter14PDFConverterGlENS_9allocatorIS2_EEED1Ev, symObjAddr: 0x4A0, symBinAddr: 0x9AE0, symSize: 0x20 }
  - { offset: 0x41760B, size: 0x8, addend: 0x0, symName: __ZNSt3__120__shared_ptr_emplaceIN12pdfConverter14PDFConverterGlENS_9allocatorIS2_EEED0Ev, symObjAddr: 0x4C0, symBinAddr: 0x9B00, symSize: 0x30 }
  - { offset: 0x4176F8, size: 0x8, addend: 0x0, symName: __ZNSt3__120__shared_ptr_emplaceIN12pdfConverter14PDFConverterGlENS_9allocatorIS2_EEE16__on_zero_sharedEv, symObjAddr: 0x4F0, symBinAddr: 0x9B30, symSize: 0x10 }
  - { offset: 0x41779A, size: 0x8, addend: 0x0, symName: __ZNSt3__120__shared_ptr_emplaceIN12pdfConverter14PDFConverterGlENS_9allocatorIS2_EEE21__on_zero_shared_weakEv, symObjAddr: 0x500, symBinAddr: 0x9B40, symSize: 0xA }
  - { offset: 0x419877, size: 0x8, addend: 0x0, symName: __ZN11perforation12gPerforationE, symObjAddr: 0xCD3F0, symBinAddr: 0x2382B90, symSize: 0x0 }
  - { offset: 0x419A00, size: 0x8, addend: 0x0, symName: __ZN11perforation35gPerforation_global_registrator_objE, symObjAddr: 0xCD400, symBinAddr: 0x2382BA0, symSize: 0x0 }
  - { offset: 0x432840, size: 0x8, addend: 0x0, symName: __ZNSt3__18weak_ptrIN11perforation13PerforationGlEED1Ev, symObjAddr: 0x0, symBinAddr: 0xA490, symSize: 0x20 }
  - { offset: 0x4328E7, size: 0x8, addend: 0x0, symName: __ZN11perforation31gPerforation_global_registratorD1Ev, symObjAddr: 0x20, symBinAddr: 0xA4B0, symSize: 0x30 }
  - { offset: 0x432A6C, size: 0x8, addend: 0x0, symName: __ZN11perforation31gPerforation_global_registratorC2Ev, symObjAddr: 0x50, symBinAddr: 0xA4E0, symSize: 0x70 }
  - { offset: 0x432C26, size: 0x8, addend: 0x0, symName: __ZN6common10modularity18ModuleOrchestrator9addModuleIN11perforation13PerforationGlELb1EEEmRKSt16initializer_listI18eProcessGlCommandsE, symObjAddr: 0xC0, symBinAddr: 0xA550, symSize: 0x1A0 }
  - { offset: 0x4335BF, size: 0x8, addend: 0x0, symName: __ZN6common10modularity18ModuleOrchestrator12moduleObjectIN11perforation13PerforationGlELb1EEENSt3__18weak_ptrIT_EEv, symObjAddr: 0x260, symBinAddr: 0xA6F0, symSize: 0x120 }
  - { offset: 0x434285, size: 0x8, addend: 0x0, symName: __ZNSt3__120__shared_ptr_emplaceIN11perforation13PerforationGlENS_9allocatorIS2_EEED1Ev, symObjAddr: 0x4A0, symBinAddr: 0xA810, symSize: 0x20 }
  - { offset: 0x4342DD, size: 0x8, addend: 0x0, symName: __ZNSt3__120__shared_ptr_emplaceIN11perforation13PerforationGlENS_9allocatorIS2_EEED0Ev, symObjAddr: 0x4C0, symBinAddr: 0xA830, symSize: 0x30 }
  - { offset: 0x4343CA, size: 0x8, addend: 0x0, symName: __ZNSt3__120__shared_ptr_emplaceIN11perforation13PerforationGlENS_9allocatorIS2_EEE16__on_zero_sharedEv, symObjAddr: 0x4F0, symBinAddr: 0xA860, symSize: 0x10 }
  - { offset: 0x43446C, size: 0x8, addend: 0x0, symName: __ZNSt3__120__shared_ptr_emplaceIN11perforation13PerforationGlENS_9allocatorIS2_EEE21__on_zero_shared_weakEv, symObjAddr: 0x500, symBinAddr: 0xA870, symSize: 0xA }
  - { offset: 0x436761, size: 0x8, addend: 0x0, symName: __ZN14procmgrdefault8gProcMgrE, symObjAddr: 0x155150, symBinAddr: 0x2382BB0, symSize: 0x0 }
  - { offset: 0x437013, size: 0x8, addend: 0x0, symName: __ZN14procmgrdefault31gProcMgr_global_registrator_objE, symObjAddr: 0x155160, symBinAddr: 0x2382BC0, symSize: 0x0 }
  - { offset: 0x437050, size: 0x8, addend: 0x0, symName: __ZN14procmgrdefault6getObjEv, symObjAddr: 0x50, symBinAddr: 0xA920, symSize: 0x40 }
  - { offset: 0x4688E6, size: 0x8, addend: 0x0, symName: __ZNSt3__18weak_ptrIN14procmgrdefault14ProcMgrDefaultEED1Ev, symObjAddr: 0x0, symBinAddr: 0xA8D0, symSize: 0x20 }
  - { offset: 0x46898D, size: 0x8, addend: 0x0, symName: __ZN14procmgrdefault27gProcMgr_global_registratorD1Ev, symObjAddr: 0x20, symBinAddr: 0xA8F0, symSize: 0x30 }
  - { offset: 0x468B74, size: 0x8, addend: 0x0, symName: __ZN14procmgrdefault27gProcMgr_global_registratorC2Ev, symObjAddr: 0x90, symBinAddr: 0xA960, symSize: 0x70 }
  - { offset: 0x468D2E, size: 0x8, addend: 0x0, symName: __ZN6common10modularity18ModuleOrchestrator9addModuleIN14procmgrdefault14ProcMgrDefaultELb1EEEmRKSt16initializer_listI18eProcessGlCommandsE, symObjAddr: 0x100, symBinAddr: 0xA9D0, symSize: 0x1A0 }
  - { offset: 0x4696C7, size: 0x8, addend: 0x0, symName: __ZN6common10modularity18ModuleOrchestrator12moduleObjectIN14procmgrdefault14ProcMgrDefaultELb1EEENSt3__18weak_ptrIT_EEv, symObjAddr: 0x2A0, symBinAddr: 0xAB70, symSize: 0x120 }
  - { offset: 0x46A388, size: 0x8, addend: 0x0, symName: __ZNSt3__120__shared_ptr_emplaceIN14procmgrdefault14ProcMgrDefaultENS_9allocatorIS2_EEED1Ev, symObjAddr: 0x4E0, symBinAddr: 0xAC90, symSize: 0x20 }
  - { offset: 0x46A3E0, size: 0x8, addend: 0x0, symName: __ZNSt3__120__shared_ptr_emplaceIN14procmgrdefault14ProcMgrDefaultENS_9allocatorIS2_EEED0Ev, symObjAddr: 0x500, symBinAddr: 0xACB0, symSize: 0x30 }
  - { offset: 0x46A4CD, size: 0x8, addend: 0x0, symName: __ZNSt3__120__shared_ptr_emplaceIN14procmgrdefault14ProcMgrDefaultENS_9allocatorIS2_EEE16__on_zero_sharedEv, symObjAddr: 0x530, symBinAddr: 0xACE0, symSize: 0x10 }
  - { offset: 0x46A56F, size: 0x8, addend: 0x0, symName: __ZNSt3__120__shared_ptr_emplaceIN14procmgrdefault14ProcMgrDefaultENS_9allocatorIS2_EEE21__on_zero_shared_weakEv, symObjAddr: 0x540, symBinAddr: 0xACF0, symSize: 0xA }
  - { offset: 0x46C8BD, size: 0x8, addend: 0x0, symName: __ZN7procmgr8gProcMgrE, symObjAddr: 0x107F30, symBinAddr: 0x2382BD0, symSize: 0x0 }
  - { offset: 0x46CDA9, size: 0x8, addend: 0x0, symName: __ZN7procmgr31gProcMgr_global_registrator_objE, symObjAddr: 0x107F40, symBinAddr: 0x2382BE0, symSize: 0x0 }
  - { offset: 0x46CDE6, size: 0x8, addend: 0x0, symName: __ZN7procmgr6getObjEv, symObjAddr: 0x50, symBinAddr: 0xADA0, symSize: 0x40 }
  - { offset: 0x48BE6D, size: 0x8, addend: 0x0, symName: __ZNSt3__18weak_ptrIN7procmgr7ProcMgrEED1Ev, symObjAddr: 0x0, symBinAddr: 0xAD50, symSize: 0x20 }
  - { offset: 0x48BF14, size: 0x8, addend: 0x0, symName: __ZN7procmgr27gProcMgr_global_registratorD1Ev, symObjAddr: 0x20, symBinAddr: 0xAD70, symSize: 0x30 }
  - { offset: 0x48C0FB, size: 0x8, addend: 0x0, symName: __ZN7procmgr27gProcMgr_global_registratorC2Ev, symObjAddr: 0x90, symBinAddr: 0xADE0, symSize: 0x70 }
  - { offset: 0x48C2B5, size: 0x8, addend: 0x0, symName: __ZN6common10modularity18ModuleOrchestrator9addModuleIN7procmgr7ProcMgrELb1EEEmRKSt16initializer_listI18eProcessGlCommandsE, symObjAddr: 0x100, symBinAddr: 0xAE50, symSize: 0x1A0 }
  - { offset: 0x48CC4E, size: 0x8, addend: 0x0, symName: __ZN6common10modularity18ModuleOrchestrator12moduleObjectIN7procmgr7ProcMgrELb1EEENSt3__18weak_ptrIT_EEv, symObjAddr: 0x2A0, symBinAddr: 0xAFF0, symSize: 0x120 }
  - { offset: 0x48D90F, size: 0x8, addend: 0x0, symName: __ZNSt3__120__shared_ptr_emplaceIN7procmgr7ProcMgrENS_9allocatorIS2_EEED1Ev, symObjAddr: 0x4E0, symBinAddr: 0xB110, symSize: 0x20 }
  - { offset: 0x48D967, size: 0x8, addend: 0x0, symName: __ZNSt3__120__shared_ptr_emplaceIN7procmgr7ProcMgrENS_9allocatorIS2_EEED0Ev, symObjAddr: 0x500, symBinAddr: 0xB130, symSize: 0x30 }
  - { offset: 0x48DA54, size: 0x8, addend: 0x0, symName: __ZNSt3__120__shared_ptr_emplaceIN7procmgr7ProcMgrENS_9allocatorIS2_EEE16__on_zero_sharedEv, symObjAddr: 0x530, symBinAddr: 0xB160, symSize: 0x10 }
  - { offset: 0x48DAF6, size: 0x8, addend: 0x0, symName: __ZNSt3__120__shared_ptr_emplaceIN7procmgr7ProcMgrENS_9allocatorIS2_EEE21__on_zero_shared_weakEv, symObjAddr: 0x540, symBinAddr: 0xB170, symSize: 0xA }
  - { offset: 0x48FDE9, size: 0x8, addend: 0x0, symName: _gRFID, symObjAddr: 0xAFC10, symBinAddr: 0x2382BF0, symSize: 0x0 }
  - { offset: 0x4A63F9, size: 0x8, addend: 0x0, symName: _gRFID_global_registrator_obj, symObjAddr: 0xAFC20, symBinAddr: 0x2382C00, symSize: 0x0 }
  - { offset: 0x4A7BA2, size: 0x8, addend: 0x0, symName: __ZNSt3__18weak_ptrI5CRFIDED1Ev, symObjAddr: 0x0, symBinAddr: 0xB1D0, symSize: 0x20 }
  - { offset: 0x4A7C49, size: 0x8, addend: 0x0, symName: __ZN24gRFID_global_registratorD1Ev, symObjAddr: 0x20, symBinAddr: 0xB1F0, symSize: 0x30 }
  - { offset: 0x4A7D3B, size: 0x8, addend: 0x0, symName: __ZN4rfid6getObjEv, symObjAddr: 0x50, symBinAddr: 0xB220, symSize: 0x40 }
  - { offset: 0x4A7EAB, size: 0x8, addend: 0x0, symName: __ZN24gRFID_global_registratorC2Ev, symObjAddr: 0x90, symBinAddr: 0xB260, symSize: 0x70 }
  - { offset: 0x4A8065, size: 0x8, addend: 0x0, symName: __ZN6common10modularity18ModuleOrchestrator9addModuleI5CRFIDLb1EEEmRKSt16initializer_listI18eProcessGlCommandsE, symObjAddr: 0x100, symBinAddr: 0xB2D0, symSize: 0x1A0 }
  - { offset: 0x4A89FE, size: 0x8, addend: 0x0, symName: __ZN6common10modularity18ModuleOrchestrator12moduleObjectI5CRFIDLb1EEENSt3__18weak_ptrIT_EEv, symObjAddr: 0x2A0, symBinAddr: 0xB470, symSize: 0x120 }
  - { offset: 0x4A96BF, size: 0x8, addend: 0x0, symName: __ZNSt3__120__shared_ptr_emplaceI5CRFIDNS_9allocatorIS1_EEED1Ev, symObjAddr: 0x4E0, symBinAddr: 0xB590, symSize: 0x20 }
  - { offset: 0x4A9717, size: 0x8, addend: 0x0, symName: __ZNSt3__120__shared_ptr_emplaceI5CRFIDNS_9allocatorIS1_EEED0Ev, symObjAddr: 0x500, symBinAddr: 0xB5B0, symSize: 0x30 }
  - { offset: 0x4A9804, size: 0x8, addend: 0x0, symName: __ZNSt3__120__shared_ptr_emplaceI5CRFIDNS_9allocatorIS1_EEE16__on_zero_sharedEv, symObjAddr: 0x530, symBinAddr: 0xB5E0, symSize: 0x10 }
  - { offset: 0x4A98A6, size: 0x8, addend: 0x0, symName: __ZNSt3__120__shared_ptr_emplaceI5CRFIDNS_9allocatorIS1_EEE21__on_zero_shared_weakEv, symObjAddr: 0x540, symBinAddr: 0xB5F0, symSize: 0xA }
  - { offset: 0x4ABB98, size: 0x8, addend: 0x0, symName: __ZN8reader1D9gReader1DE, symObjAddr: 0xFB930, symBinAddr: 0x2382C10, symSize: 0x0 }
  - { offset: 0x4AC73F, size: 0x8, addend: 0x0, symName: __ZN8reader1D32gReader1D_global_registrator_objE, symObjAddr: 0xFB940, symBinAddr: 0x2382C20, symSize: 0x0 }
  - { offset: 0x4CB40A, size: 0x8, addend: 0x0, symName: __ZNSt3__18weak_ptrIN8reader1D9CReader1DEED1Ev, symObjAddr: 0x0, symBinAddr: 0xB650, symSize: 0x20 }
  - { offset: 0x4CB4B1, size: 0x8, addend: 0x0, symName: __ZN8reader1D28gReader1D_global_registratorD1Ev, symObjAddr: 0x20, symBinAddr: 0xB670, symSize: 0x30 }
  - { offset: 0x4CB636, size: 0x8, addend: 0x0, symName: __ZN8reader1D28gReader1D_global_registratorC2Ev, symObjAddr: 0x50, symBinAddr: 0xB6A0, symSize: 0x70 }
  - { offset: 0x4CB7F0, size: 0x8, addend: 0x0, symName: __ZN6common10modularity18ModuleOrchestrator9addModuleIN8reader1D9CReader1DELb1EEEmRKSt16initializer_listI18eProcessGlCommandsE, symObjAddr: 0xC0, symBinAddr: 0xB710, symSize: 0x1A0 }
  - { offset: 0x4CC189, size: 0x8, addend: 0x0, symName: __ZN6common10modularity18ModuleOrchestrator12moduleObjectIN8reader1D9CReader1DELb1EEENSt3__18weak_ptrIT_EEv, symObjAddr: 0x260, symBinAddr: 0xB8B0, symSize: 0x120 }
  - { offset: 0x4CCE4F, size: 0x8, addend: 0x0, symName: __ZNSt3__120__shared_ptr_emplaceIN8reader1D9CReader1DENS_9allocatorIS2_EEED1Ev, symObjAddr: 0x4A0, symBinAddr: 0xB9D0, symSize: 0x20 }
  - { offset: 0x4CCEA7, size: 0x8, addend: 0x0, symName: __ZNSt3__120__shared_ptr_emplaceIN8reader1D9CReader1DENS_9allocatorIS2_EEED0Ev, symObjAddr: 0x4C0, symBinAddr: 0xB9F0, symSize: 0x30 }
  - { offset: 0x4CCF94, size: 0x8, addend: 0x0, symName: __ZNSt3__120__shared_ptr_emplaceIN8reader1D9CReader1DENS_9allocatorIS2_EEE16__on_zero_sharedEv, symObjAddr: 0x4F0, symBinAddr: 0xBA20, symSize: 0x10 }
  - { offset: 0x4CD036, size: 0x8, addend: 0x0, symName: __ZNSt3__120__shared_ptr_emplaceIN8reader1D9CReader1DENS_9allocatorIS2_EEE21__on_zero_shared_weakEv, symObjAddr: 0x500, symBinAddr: 0xBA30, symSize: 0xA }
  - { offset: 0x4CF2CC, size: 0x8, addend: 0x0, symName: __ZN6common9resourcesL14dbStatusAbsentE, symObjAddr: 0x18AEC8, symBinAddr: 0x239A980, symSize: 0x0 }
  - { offset: 0x4CF2E6, size: 0x8, addend: 0x0, symName: __ZN6common9resourcesL17dbStatusIncorrectE, symObjAddr: 0x18AEE0, symBinAddr: 0x239A998, symSize: 0x0 }
  - { offset: 0x4F7273, size: 0x8, addend: 0x0, symName: _gRecPassExternal, symObjAddr: 0x18AF00, symBinAddr: 0x2382C30, symSize: 0x0 }
  - { offset: 0x4FD72F, size: 0x8, addend: 0x0, symName: _gRecPassExternal_global_registrator_obj, symObjAddr: 0x18AF10, symBinAddr: 0x2382C40, symSize: 0x0 }
  - { offset: 0x4FEED9, size: 0x8, addend: 0x0, symName: __ZNSt3__18weak_ptrI15RecPassExternalED1Ev, symObjAddr: 0x0, symBinAddr: 0xBA90, symSize: 0x20 }
  - { offset: 0x4FEF80, size: 0x8, addend: 0x0, symName: __ZN35gRecPassExternal_global_registratorD1Ev, symObjAddr: 0x20, symBinAddr: 0xBAB0, symSize: 0x30 }
  - { offset: 0x4FF105, size: 0x8, addend: 0x0, symName: __ZN35gRecPassExternal_global_registratorC2Ev, symObjAddr: 0x50, symBinAddr: 0xBAE0, symSize: 0x70 }
  - { offset: 0x4FF2BF, size: 0x8, addend: 0x0, symName: __ZN6common10modularity18ModuleOrchestrator9addModuleI15RecPassExternalLb1EEEmRKSt16initializer_listI18eProcessGlCommandsE, symObjAddr: 0xC0, symBinAddr: 0xBB50, symSize: 0x1A0 }
  - { offset: 0x4FFC58, size: 0x8, addend: 0x0, symName: __ZN6common10modularity18ModuleOrchestrator12moduleObjectI15RecPassExternalLb1EEENSt3__18weak_ptrIT_EEv, symObjAddr: 0x260, symBinAddr: 0xBCF0, symSize: 0x120 }
  - { offset: 0x50091E, size: 0x8, addend: 0x0, symName: __ZNSt3__120__shared_ptr_emplaceI15RecPassExternalNS_9allocatorIS1_EEED1Ev, symObjAddr: 0x4A0, symBinAddr: 0xBE10, symSize: 0x20 }
  - { offset: 0x500976, size: 0x8, addend: 0x0, symName: __ZNSt3__120__shared_ptr_emplaceI15RecPassExternalNS_9allocatorIS1_EEED0Ev, symObjAddr: 0x4C0, symBinAddr: 0xBE30, symSize: 0x30 }
  - { offset: 0x500A63, size: 0x8, addend: 0x0, symName: __ZNSt3__120__shared_ptr_emplaceI15RecPassExternalNS_9allocatorIS1_EEE16__on_zero_sharedEv, symObjAddr: 0x4F0, symBinAddr: 0xBE60, symSize: 0x10 }
  - { offset: 0x500B05, size: 0x8, addend: 0x0, symName: __ZNSt3__120__shared_ptr_emplaceI15RecPassExternalNS_9allocatorIS1_EEE21__on_zero_shared_weakEv, symObjAddr: 0x500, symBinAddr: 0xBE70, symSize: 0xA }
  - { offset: 0x513CBD, size: 0x8, addend: 0x0, symName: __ZNSt3__125__throw_bad_function_callB8ne180100Ev, symObjAddr: 0x4350, symBinAddr: 0x10130, symSize: 0x40 }
  - { offset: 0x51BB3C, size: 0x8, addend: 0x0, symName: '-[ImageResult image]', symObjAddr: 0x0, symBinAddr: 0xBF70, symSize: 0x10 }
  - { offset: 0x51BB71, size: 0x8, addend: 0x0, symName: '-[ImageResult setImage:]', symObjAddr: 0x10, symBinAddr: 0xBF80, symSize: 0x20 }
  - { offset: 0x51BBB2, size: 0x8, addend: 0x0, symName: '-[ImageResult pageIndex]', symObjAddr: 0x30, symBinAddr: 0xBFA0, symSize: 0x10 }
  - { offset: 0x51BBE7, size: 0x8, addend: 0x0, symName: '-[ImageResult setPageIndex:]', symObjAddr: 0x40, symBinAddr: 0xBFB0, symSize: 0x10 }
  - { offset: 0x51BC24, size: 0x8, addend: 0x0, symName: '-[ImageResult light]', symObjAddr: 0x50, symBinAddr: 0xBFC0, symSize: 0x10 }
  - { offset: 0x51BC59, size: 0x8, addend: 0x0, symName: '-[ImageResult setLight:]', symObjAddr: 0x60, symBinAddr: 0xBFD0, symSize: 0x10 }
  - { offset: 0x51BC96, size: 0x8, addend: 0x0, symName: '-[ImageResult type]', symObjAddr: 0x70, symBinAddr: 0xBFE0, symSize: 0x10 }
  - { offset: 0x51BCCB, size: 0x8, addend: 0x0, symName: '-[ImageResult setType:]', symObjAddr: 0x80, symBinAddr: 0xBFF0, symSize: 0x10 }
  - { offset: 0x51BD08, size: 0x8, addend: 0x0, symName: '-[ImageResult exposure]', symObjAddr: 0x90, symBinAddr: 0xC000, symSize: 0x10 }
  - { offset: 0x51BD3D, size: 0x8, addend: 0x0, symName: '-[ImageResult setExposure:]', symObjAddr: 0xA0, symBinAddr: 0xC010, symSize: 0x10 }
  - { offset: 0x51BD7A, size: 0x8, addend: 0x0, symName: '-[ImageResult .cxx_destruct]', symObjAddr: 0xB0, symBinAddr: 0xC020, symSize: 0x10 }
  - { offset: 0x51BDAD, size: 0x8, addend: 0x0, symName: '-[CertificateWrapper binaryData]', symObjAddr: 0xC0, symBinAddr: 0xC030, symSize: 0x10 }
  - { offset: 0x51BDE2, size: 0x8, addend: 0x0, symName: '-[CertificateWrapper setBinaryData:]', symObjAddr: 0xD0, symBinAddr: 0xC040, symSize: 0x20 }
  - { offset: 0x51BE23, size: 0x8, addend: 0x0, symName: '-[CertificateWrapper type]', symObjAddr: 0xF0, symBinAddr: 0xC060, symSize: 0x10 }
  - { offset: 0x51BE58, size: 0x8, addend: 0x0, symName: '-[CertificateWrapper setType:]', symObjAddr: 0x100, symBinAddr: 0xC070, symSize: 0x10 }
  - { offset: 0x51BE95, size: 0x8, addend: 0x0, symName: '-[CertificateWrapper privateKey]', symObjAddr: 0x110, symBinAddr: 0xC080, symSize: 0x10 }
  - { offset: 0x51BECA, size: 0x8, addend: 0x0, symName: '-[CertificateWrapper setPrivateKey:]', symObjAddr: 0x120, symBinAddr: 0xC090, symSize: 0x20 }
  - { offset: 0x51BF0B, size: 0x8, addend: 0x0, symName: '-[CertificateWrapper .cxx_destruct]', symObjAddr: 0x140, symBinAddr: 0xC0B0, symSize: 0x30 }
  - { offset: 0x51CBBA, size: 0x8, addend: 0x0, symName: '+[DocumentReader process:inputImages:inputJSON:outputImages:outputJSON:]', symObjAddr: 0x170, symBinAddr: 0xC0E0, symSize: 0xD50 }
  - { offset: 0x51E43A, size: 0x8, addend: 0x0, symName: __ZNKSt3__112basic_stringIcNS_11char_traitsIcEENS_9allocatorIcEEE20__throw_length_errorB8ne180100Ev, symObjAddr: 0x34E0, symBinAddr: 0xF340, symSize: 0x10 }
  - { offset: 0x51E7E0, size: 0x8, addend: 0x0, symName: '+[DocumentReader process:inputData:inputJSON:outputJSON:]', symObjAddr: 0xEC0, symBinAddr: 0xCE30, symSize: 0x9C0 }
  - { offset: 0x5205C1, size: 0x8, addend: 0x0, symName: __ZN6common6base647EncoderD1Ev, symObjAddr: 0x1880, symBinAddr: 0xD7F0, symSize: 0x40 }
  - { offset: 0x520996, size: 0x8, addend: 0x0, symName: '+[DocumentReader addPKDCertificates:]', symObjAddr: 0x18C0, symBinAddr: 0xD830, symSize: 0xA40 }
  - { offset: 0x5215B2, size: 0x8, addend: 0x0, symName: __ZNSt3__16vectorIhNS_9allocatorIhEEE18__insert_with_sizeB8ne180100IPhS5_EENS_11__wrap_iterIS5_EENS6_IPKhEET_T0_l, symObjAddr: 0x3570, symBinAddr: 0xF350, symSize: 0x3A0 }
  - { offset: 0x52233C, size: 0x8, addend: 0x0, symName: '+[DocumentReader clearPKDCertificatesStore]', symObjAddr: 0x2300, symBinAddr: 0xE270, symSize: 0x20 }
  - { offset: 0x522C15, size: 0x8, addend: 0x0, symName: '+[DocumentReader prepareCallback:]', symObjAddr: 0x2320, symBinAddr: 0xE290, symSize: 0x210 }
  - { offset: 0x523859, size: 0x8, addend: 0x0, symName: '+[DocumentReader resetCallback]', symObjAddr: 0x2630, symBinAddr: 0xE4A0, symSize: 0x70 }
  - { offset: 0x523983, size: 0x8, addend: 0x0, symName: '+[RegulaDocumentReaderCore prepareCallback:]', symObjAddr: 0x26A0, symBinAddr: 0xE510, symSize: 0x20 }
  - { offset: 0x5239D6, size: 0x8, addend: 0x0, symName: '+[RegulaDocumentReaderCore resetCallback]', symObjAddr: 0x26C0, symBinAddr: 0xE530, symSize: 0x20 }
  - { offset: 0x523A12, size: 0x8, addend: 0x0, symName: '+[RegulaDocumentReaderCore processWithImage:]', symObjAddr: 0x26E0, symBinAddr: 0xE550, symSize: 0xB40 }
  - { offset: 0x5241EA, size: 0x8, addend: 0x0, symName: '+[RegulaDocumentReaderCore process:]', symObjAddr: 0x3220, symBinAddr: 0xF090, symSize: 0x220 }
  - { offset: 0x524478, size: 0x8, addend: 0x0, symName: '+[RegulaDocumentReaderCore addPKDCertificates:]', symObjAddr: 0x3440, symBinAddr: 0xF2B0, symSize: 0x50 }
  - { offset: 0x5244FF, size: 0x8, addend: 0x0, symName: '+[RegulaDocumentReaderCore clearPKDCertificatesStore]', symObjAddr: 0x3490, symBinAddr: 0xF300, symSize: 0x40 }
  - { offset: 0x524BC7, size: 0x8, addend: 0x0, symName: __ZNKSt3__16vectorIhNS_9allocatorIhEEE20__throw_length_errorB8ne180100Ev, symObjAddr: 0x3910, symBinAddr: 0xF6F0, symSize: 0x10 }
  - { offset: 0x524BF1, size: 0x8, addend: 0x0, symName: __ZNSt3__120__shared_ptr_emplaceI8ObjcImplNS_9allocatorIS1_EEED1Ev, symObjAddr: 0x3920, symBinAddr: 0xF700, symSize: 0x20 }
  - { offset: 0x524C18, size: 0x8, addend: 0x0, symName: __ZNSt3__120__shared_ptr_emplaceI8ObjcImplNS_9allocatorIS1_EEED1Ev, symObjAddr: 0x3920, symBinAddr: 0xF700, symSize: 0x20 }
  - { offset: 0x524C70, size: 0x8, addend: 0x0, symName: __ZNSt3__120__shared_ptr_emplaceI8ObjcImplNS_9allocatorIS1_EEED0Ev, symObjAddr: 0x3940, symBinAddr: 0xF720, symSize: 0x30 }
  - { offset: 0x524D5D, size: 0x8, addend: 0x0, symName: __ZNSt3__120__shared_ptr_emplaceI8ObjcImplNS_9allocatorIS1_EEE16__on_zero_sharedEv, symObjAddr: 0x3970, symBinAddr: 0xF750, symSize: 0x10 }
  - { offset: 0x524E57, size: 0x8, addend: 0x0, symName: __ZNSt3__120__shared_ptr_emplaceI8ObjcImplNS_9allocatorIS1_EEE21__on_zero_shared_weakEv, symObjAddr: 0x3980, symBinAddr: 0xF760, symSize: 0x10 }
  - { offset: 0x525061, size: 0x8, addend: 0x0, symName: __ZN8ObjcImpl7processERKN12datatransfer7RequestENSt3__18functionIFvRKNS0_8ResponseEEEE, symObjAddr: 0x3990, symBinAddr: 0xF770, symSize: 0x440 }
  - { offset: 0x5256F1, size: 0x8, addend: 0x0, symName: __ZN8ObjcImplD1Ev, symObjAddr: 0x3DD0, symBinAddr: 0xFBB0, symSize: 0x40 }
  - { offset: 0x525767, size: 0x8, addend: 0x0, symName: __ZN8ObjcImplD0Ev, symObjAddr: 0x3E10, symBinAddr: 0xFBF0, symSize: 0x40 }
  - { offset: 0x52590A, size: 0x8, addend: 0x0, symName: ____ZN8ObjcImpl7processERKN12datatransfer7RequestENSt3__18functionIFvRKNS0_8ResponseEEEE_block_invoke, symObjAddr: 0x3E50, symBinAddr: 0xFC30, symSize: 0x2E0 }
  - { offset: 0x5269A2, size: 0x8, addend: 0x0, symName: __ZN12datatransfer8ResponseD1Ev, symObjAddr: 0x4130, symBinAddr: 0xFF10, symSize: 0x40 }
  - { offset: 0x526BEF, size: 0x8, addend: 0x0, symName: ___copy_helper_block_ea16_32c53_ZTSNSt3__18functionIFvRKN12datatransfer8ResponseEEEE80s, symObjAddr: 0x4170, symBinAddr: 0xFF50, symSize: 0x60 }
  - { offset: 0x526CCD, size: 0x8, addend: 0x0, symName: ___destroy_helper_block_ea16_32c53_ZTSNSt3__18functionIFvRKN12datatransfer8ResponseEEEE80s, symObjAddr: 0x41D0, symBinAddr: 0xFFB0, symSize: 0x50 }
  - { offset: 0x526D66, size: 0x8, addend: 0x0, symName: ____ZN8ObjcImpl7processERKN12datatransfer7RequestENSt3__18functionIFvRKNS0_8ResponseEEEE_block_invoke.190, symObjAddr: 0x4220, symBinAddr: 0x10000, symSize: 0xA0 }
  - { offset: 0x526E9E, size: 0x8, addend: 0x0, symName: ___copy_helper_block_ea8_32s40s48s56b, symObjAddr: 0x42C0, symBinAddr: 0x100A0, symSize: 0x50 }
  - { offset: 0x526EEB, size: 0x8, addend: 0x0, symName: ___destroy_helper_block_ea8_32s40s48s56s, symObjAddr: 0x4310, symBinAddr: 0x100F0, symSize: 0x40 }
  - { offset: 0x526FA4, size: 0x8, addend: 0x0, symName: __ZNSt3__117bad_function_callD1Ev, symObjAddr: 0x4390, symBinAddr: 0x10170, symSize: 0x10 }
  - { offset: 0x526FFA, size: 0x8, addend: 0x0, symName: __ZNSt3__117bad_function_callD0Ev, symObjAddr: 0x43A0, symBinAddr: 0x10180, symSize: 0x20 }
  - { offset: 0x527079, size: 0x8, addend: 0x0, symName: __ZNSt3__120__shared_ptr_emplaceIN12datatransfer28DataTransferCallbackResponceENS_9allocatorIS2_EEED1Ev, symObjAddr: 0x43C0, symBinAddr: 0x101A0, symSize: 0x20 }
  - { offset: 0x5270D1, size: 0x8, addend: 0x0, symName: __ZNSt3__120__shared_ptr_emplaceIN12datatransfer28DataTransferCallbackResponceENS_9allocatorIS2_EEED0Ev, symObjAddr: 0x43E0, symBinAddr: 0x101C0, symSize: 0x30 }
  - { offset: 0x5271BE, size: 0x8, addend: 0x0, symName: __ZNSt3__120__shared_ptr_emplaceIN12datatransfer28DataTransferCallbackResponceENS_9allocatorIS2_EEE16__on_zero_sharedEv, symObjAddr: 0x4410, symBinAddr: 0x101F0, symSize: 0x10 }
  - { offset: 0x5272B8, size: 0x8, addend: 0x0, symName: __ZNSt3__120__shared_ptr_emplaceIN12datatransfer28DataTransferCallbackResponceENS_9allocatorIS2_EEE21__on_zero_shared_weakEv, symObjAddr: 0x4420, symBinAddr: 0x10200, symSize: 0xA }
  - { offset: 0x52A05A, size: 0x8, addend: 0x0, symName: __ZN5boost9iostreams6detail14system_failureEPKc, symObjAddr: 0x1450, symBinAddr: 0x156CAB0, symSize: 0xF0 }
  - { offset: 0x52B974, size: 0x8, addend: 0x0, symName: __ZN5boost16exception_detail20copy_boost_exceptionEPNS_9exceptionEPKS1_, symObjAddr: 0x1A10, symBinAddr: 0x156D050, symSize: 0xF0 }
  - { offset: 0x52C3A3, size: 0x8, addend: 0x0, symName: __ZN5boost15throw_exceptionINSt3__18ios_base7failureEEEvRKT_, symObjAddr: 0x4C0, symBinAddr: 0x156C150, symSize: 0x50 }
  - { offset: 0x5364E1, size: 0x8, addend: 0x0, symName: __ZN5boost9iostreams6detail16mapped_file_impl5clearEb, symObjAddr: 0x50, symBinAddr: 0x156BE40, symSize: 0xC0 }
  - { offset: 0x536AA0, size: 0x8, addend: 0x0, symName: __ZN5boost9iostreams6detail16mapped_file_impl5closeEv, symObjAddr: 0x210, symBinAddr: 0x156BF00, symSize: 0x90 }
  - { offset: 0x536E44, size: 0x8, addend: 0x0, symName: __ZN5boost9iostreams6detail16mapped_file_impl4openENS0_24basic_mapped_file_paramsINS1_4pathEEE, symObjAddr: 0x300, symBinAddr: 0x156BF90, symSize: 0x1C0 }
  - { offset: 0x537677, size: 0x8, addend: 0x0, symName: __ZN5boost9iostreams6detail23mapped_file_params_base9normalizeEv, symObjAddr: 0x510, symBinAddr: 0x156C1A0, symSize: 0x140 }
  - { offset: 0x537A3E, size: 0x8, addend: 0x0, symName: __ZN5boost9iostreams6detail16mapped_file_impl9open_fileENS0_24basic_mapped_file_paramsINS1_4pathEEE, symObjAddr: 0x650, symBinAddr: 0x156C2E0, symSize: 0x240 }
  - { offset: 0x537E0A, size: 0x8, addend: 0x0, symName: __ZN5boost9iostreams24basic_mapped_file_paramsINS0_6detail4pathEEC1ERKS4_, symObjAddr: 0x890, symBinAddr: 0x156C520, symSize: 0xC0 }
  - { offset: 0x538182, size: 0x8, addend: 0x0, symName: __ZN5boost9iostreams6detail16mapped_file_impl8map_fileERNS0_24basic_mapped_file_paramsINS1_4pathEEE, symObjAddr: 0x950, symBinAddr: 0x156C5E0, symSize: 0x180 }
  - { offset: 0x53885A, size: 0x8, addend: 0x0, symName: __ZN5boost9iostreams6detail16mapped_file_impl12try_map_fileENS0_24basic_mapped_file_paramsINS1_4pathEEE, symObjAddr: 0xEB0, symBinAddr: 0x156C760, symSize: 0xB0 }
  - { offset: 0x538966, size: 0x8, addend: 0x0, symName: __ZN5boost9iostreams18mapped_file_sourceC2Ev, symObjAddr: 0xF60, symBinAddr: 0x156C810, symSize: 0xA0 }
  - { offset: 0x53902B, size: 0x8, addend: 0x0, symName: __ZN5boost10shared_ptrINS_9iostreams6detail16mapped_file_implEEC1IS3_EEPT_, symObjAddr: 0x1000, symBinAddr: 0x156C8B0, symSize: 0xB0 }
  - { offset: 0x539337, size: 0x8, addend: 0x0, symName: __ZN5boost9iostreams18mapped_file_sourceC1Ev, symObjAddr: 0x10B0, symBinAddr: 0x156C960, symSize: 0x10 }
  - { offset: 0x5393A1, size: 0x8, addend: 0x0, symName: __ZNK5boost9iostreams18mapped_file_source7is_openEv, symObjAddr: 0x1100, symBinAddr: 0x156C970, symSize: 0x20 }
  - { offset: 0x53944B, size: 0x8, addend: 0x0, symName: __ZNK5boost9iostreams18mapped_file_source4sizeEv, symObjAddr: 0x1170, symBinAddr: 0x156C990, symSize: 0x10 }
  - { offset: 0x5394F5, size: 0x8, addend: 0x0, symName: __ZNK5boost9iostreams18mapped_file_source4dataEv, symObjAddr: 0x1180, symBinAddr: 0x156C9A0, symSize: 0x10 }
  - { offset: 0x5395A3, size: 0x8, addend: 0x0, symName: __ZN5boost9iostreams18mapped_file_source9open_implERKNS0_24basic_mapped_file_paramsINS0_6detail4pathEEE, symObjAddr: 0x12C0, symBinAddr: 0x156C9B0, symSize: 0x100 }
  - { offset: 0x539EC9, size: 0x8, addend: 0x0, symName: __ZN5boost10wrapexceptINSt3__18ios_base7failureEEC1ERKS3_, symObjAddr: 0x1540, symBinAddr: 0x156CBA0, symSize: 0x80 }
  - { offset: 0x53A0C6, size: 0x8, addend: 0x0, symName: __ZN5boost10wrapexceptINSt3__18ios_base7failureEED1Ev, symObjAddr: 0x15C0, symBinAddr: 0x156CC20, symSize: 0x50 }
  - { offset: 0x53A350, size: 0x8, addend: 0x0, symName: __ZNK5boost10wrapexceptINSt3__18ios_base7failureEE5cloneEv, symObjAddr: 0x1610, symBinAddr: 0x156CC70, symSize: 0x100 }
  - { offset: 0x53A5A0, size: 0x8, addend: 0x0, symName: __ZNK5boost10wrapexceptINSt3__18ios_base7failureEE7rethrowEv, symObjAddr: 0x1710, symBinAddr: 0x156CD70, symSize: 0x50 }
  - { offset: 0x53A5F9, size: 0x8, addend: 0x0, symName: __ZN5boost10wrapexceptINSt3__18ios_base7failureEED0Ev, symObjAddr: 0x1760, symBinAddr: 0x156CDC0, symSize: 0x60 }
  - { offset: 0x53A6E5, size: 0x8, addend: 0x0, symName: __ZThn8_N5boost10wrapexceptINSt3__18ios_base7failureEED1Ev, symObjAddr: 0x17C0, symBinAddr: 0x156CE20, symSize: 0x50 }
  - { offset: 0x53A7F4, size: 0x8, addend: 0x0, symName: __ZThn8_N5boost10wrapexceptINSt3__18ios_base7failureEED0Ev, symObjAddr: 0x1810, symBinAddr: 0x156CE70, symSize: 0x60 }
  - { offset: 0x53A8EE, size: 0x8, addend: 0x0, symName: __ZThn40_N5boost10wrapexceptINSt3__18ios_base7failureEED1Ev, symObjAddr: 0x1870, symBinAddr: 0x156CED0, symSize: 0x50 }
  - { offset: 0x53A9DC, size: 0x8, addend: 0x0, symName: __ZThn40_N5boost10wrapexceptINSt3__18ios_base7failureEED0Ev, symObjAddr: 0x18C0, symBinAddr: 0x156CF20, symSize: 0x60 }
  - { offset: 0x53AADA, size: 0x8, addend: 0x0, symName: __ZN5boost16exception_detail10clone_baseD1Ev, symObjAddr: 0x1920, symBinAddr: 0x1E690D0, symSize: 0x10 }
  - { offset: 0x53AB10, size: 0x8, addend: 0x0, symName: __ZN5boost16exception_detail10clone_baseD0Ev, symObjAddr: 0x1930, symBinAddr: 0x1E690E0, symSize: 0x10 }
  - { offset: 0x53AB46, size: 0x8, addend: 0x0, symName: __ZN5boost10wrapexceptINSt3__18ios_base7failureEEC1ERKS4_, symObjAddr: 0x1940, symBinAddr: 0x156CF80, symSize: 0xD0 }
  - { offset: 0x53AEB4, size: 0x8, addend: 0x0, symName: __ZN5boost6detail12shared_countC1INS_9iostreams6detail16mapped_file_implEEEPT_, symObjAddr: 0x1D20, symBinAddr: 0x156D140, symSize: 0xC0 }
  - { offset: 0x53B3FA, size: 0x8, addend: 0x0, symName: __ZN5boost6detail17sp_counted_impl_pINS_9iostreams6detail16mapped_file_implEED1Ev, symObjAddr: 0x1DE0, symBinAddr: 0x156D200, symSize: 0x10 }
  - { offset: 0x53B432, size: 0x8, addend: 0x0, symName: __ZN5boost6detail17sp_counted_impl_pINS_9iostreams6detail16mapped_file_implEED0Ev, symObjAddr: 0x1DF0, symBinAddr: 0x156D210, symSize: 0x10 }
  - { offset: 0x53B46A, size: 0x8, addend: 0x0, symName: __ZN5boost6detail17sp_counted_impl_pINS_9iostreams6detail16mapped_file_implEE7disposeEv, symObjAddr: 0x1E00, symBinAddr: 0x156D220, symSize: 0x70 }
  - { offset: 0x53B8C7, size: 0x8, addend: 0x0, symName: __ZN5boost6detail15sp_counted_base7destroyEv, symObjAddr: 0x1E70, symBinAddr: 0x156D290, symSize: 0x20 }
  - { offset: 0x53B8F9, size: 0x8, addend: 0x0, symName: __ZN5boost6detail17sp_counted_impl_pINS_9iostreams6detail16mapped_file_implEE11get_deleterERKSt9type_info, symObjAddr: 0x1E90, symBinAddr: 0x156D2B0, symSize: 0x10 }
  - { offset: 0x53B939, size: 0x8, addend: 0x0, symName: __ZN5boost6detail17sp_counted_impl_pINS_9iostreams6detail16mapped_file_implEE17get_local_deleterERKSt9type_info, symObjAddr: 0x1EA0, symBinAddr: 0x156D2C0, symSize: 0x10 }
  - { offset: 0x53B979, size: 0x8, addend: 0x0, symName: __ZN5boost6detail17sp_counted_impl_pINS_9iostreams6detail16mapped_file_implEE19get_untyped_deleterEv, symObjAddr: 0x1EB0, symBinAddr: 0x156D2D0, symSize: 0x8 }
  - { offset: 0x53F3DA, size: 0x8, addend: 0x0, symName: __ZN5boost6system6detail8snprintfEPcmPKcz, symObjAddr: 0x4E70, symBinAddr: 0x1A5C2E0, symSize: 0xA0 }
  - { offset: 0x53F3E2, size: 0x8, addend: 0x0, symName: __ZN5boost11unique_lockINS_5mutexEE4lockEv, symObjAddr: 0x4F10, symBinAddr: 0x1A5C380, symSize: 0xC0 }
  - { offset: 0x540005, size: 0x8, addend: 0x0, symName: __ZN5boost16exception_detail37exception_ptr_static_exception_objectINS0_10bad_alloc_EE1eE, symObjAddr: 0x94B8, symBinAddr: 0x237A998, symSize: 0x0 }
  - { offset: 0x5401A5, size: 0x8, addend: 0x0, symName: __ZN5boost16exception_detail37exception_ptr_static_exception_objectINS0_14bad_exception_EE1eE, symObjAddr: 0x94D0, symBinAddr: 0x237A9B0, symSize: 0x0 }
  - { offset: 0x540260, size: 0x8, addend: 0x0, symName: __ZN5boost16exception_detail27get_static_exception_objectINS0_10bad_alloc_EEENS_13exception_ptrEv, symObjAddr: 0x29F0, symBinAddr: 0x1A5A320, symSize: 0x2B0 }
  - { offset: 0x540299, size: 0x8, addend: 0x0, symName: __ZZN5boost16exception_detail27get_static_exception_objectINS0_10bad_alloc_EEENS_13exception_ptrEvE2ep, symObjAddr: 0x9520, symBinAddr: 0x237A9C8, symSize: 0x0 }
  - { offset: 0x540AF5, size: 0x8, addend: 0x0, symName: __ZN5boost16exception_detail27get_static_exception_objectINS0_14bad_exception_EEENS_13exception_ptrEv, symObjAddr: 0x2CE0, symBinAddr: 0x1A5A610, symSize: 0x280 }
  - { offset: 0x540B2E, size: 0x8, addend: 0x0, symName: __ZZN5boost16exception_detail27get_static_exception_objectINS0_14bad_exception_EEENS_13exception_ptrEvE2ep, symObjAddr: 0x9538, symBinAddr: 0x237A9E0, symSize: 0x0 }
  - { offset: 0x541EA8, size: 0x8, addend: 0x0, symName: __ZN5boost6detail12_GLOBAL__N_128current_thread_tls_init_flagE, symObjAddr: 0xBBD58, symBinAddr: 0x23AE790, symSize: 0x0 }
  - { offset: 0x541EC6, size: 0x8, addend: 0x0, symName: __ZN5boost6detail12_GLOBAL__N_122current_thread_tls_keyE, symObjAddr: 0xBBD60, symBinAddr: 0x23AE798, symSize: 0x0 }
  - { offset: 0x5432A0, size: 0x8, addend: 0x0, symName: __ZN5boost6detail23get_current_thread_dataEv, symObjAddr: 0x450, symBinAddr: 0x1A57F80, symSize: 0x80 }
  - { offset: 0x543324, size: 0x8, addend: 0x0, symName: __ZN5boost6detail23set_current_thread_dataEPNS0_16thread_data_baseE, symObjAddr: 0x4D0, symBinAddr: 0x1A58000, symSize: 0x80 }
  - { offset: 0x54372B, size: 0x8, addend: 0x0, symName: __ZN5boost6detail24add_thread_exit_functionEPNS0_25thread_exit_function_baseE, symObjAddr: 0x2060, symBinAddr: 0x1A59AC0, symSize: 0x90 }
  - { offset: 0x54392C, size: 0x8, addend: 0x0, symName: __ZN5boost6detail12get_tss_dataEPKv, symObjAddr: 0x2160, symBinAddr: 0x1A59B50, symSize: 0x70 }
  - { offset: 0x543B7F, size: 0x8, addend: 0x0, symName: __ZN5boost6detail16add_new_tss_nodeEPKvPFvPFvPvES3_ES5_S3_, symObjAddr: 0x21D0, symBinAddr: 0x1A59BC0, symSize: 0x140 }
  - { offset: 0x5440BA, size: 0x8, addend: 0x0, symName: __ZN5boost6detail12set_tss_dataEPKvPFvPFvPvES3_ES5_S3_b, symObjAddr: 0x23D0, symBinAddr: 0x1A59D00, symSize: 0x190 }
  - { offset: 0x5447C3, size: 0x8, addend: 0x0, symName: __ZN5boost6detail25make_ready_at_thread_exitENS_10shared_ptrINS0_17shared_state_baseEEE, symObjAddr: 0x25A0, symBinAddr: 0x1A59ED0, symSize: 0x100 }
  - { offset: 0x5451E4, size: 0x8, addend: 0x0, symName: __ZN5boost6detail20sp_pointer_constructINS0_16thread_data_baseES2_EEvPNS_10shared_ptrIT_EEPT0_RNS0_12shared_countE, symObjAddr: 0x7030, symBinAddr: 0x1A5E370, symSize: 0xD0 }
  - { offset: 0x54E6B8, size: 0x8, addend: 0x0, symName: __ZN5boost11this_thread21no_interruption_point6hidden18sleep_for_internalERKNS_6detail17platform_durationE, symObjAddr: 0x1660, symBinAddr: 0x1A590C0, symSize: 0x20 }
  - { offset: 0x54E76E, size: 0x8, addend: 0x0, symName: __ZN5boost11this_thread5yieldEv, symObjAddr: 0x1680, symBinAddr: 0x1A590E0, symSize: 0x20 }
  - { offset: 0x54E78F, size: 0x8, addend: 0x0, symName: __ZN5boost11this_thread18interruption_pointEv, symObjAddr: 0x1C30, symBinAddr: 0x1A59690, symSize: 0x150 }
  - { offset: 0x54EAFB, size: 0x8, addend: 0x0, symName: __ZN5boost11this_thread20interruption_enabledEv, symObjAddr: 0x1D80, symBinAddr: 0x1A597E0, symSize: 0x30 }
  - { offset: 0x54EB26, size: 0x8, addend: 0x0, symName: __ZN5boost11this_thread22interruption_requestedEv, symObjAddr: 0x1DB0, symBinAddr: 0x1A59810, symSize: 0x110 }
  - { offset: 0x54EFF0, size: 0x8, addend: 0x0, symName: __ZN5boost25notify_all_at_thread_exitERNS_18condition_variableENS_11unique_lockINS_5mutexEEE, symObjAddr: 0x2560, symBinAddr: 0x1A59E90, symSize: 0x40 }
  - { offset: 0x54F332, size: 0x8, addend: 0x0, symName: __ZN5boost15throw_exceptionINS_12bad_weak_ptrEEEvRKT_, symObjAddr: 0x32A0, symBinAddr: 0x1A5ABD0, symSize: 0x60 }
  - { offset: 0x54F3F1, size: 0x8, addend: 0x0, symName: __ZN5boost15throw_exceptionINS_15condition_errorEEEvRKT_, symObjAddr: 0x3D20, symBinAddr: 0x1A5B190, symSize: 0x50 }
  - { offset: 0x54F434, size: 0x8, addend: 0x0, symName: __ZN5boost15throw_exceptionINS_10lock_errorEEEvRKT_, symObjAddr: 0x4060, symBinAddr: 0x1A5B4D0, symSize: 0x50 }
  - { offset: 0x54F4CF, size: 0x8, addend: 0x0, symName: __ZN5boost15throw_exceptionINS_21thread_resource_errorEEEvRKT_, symObjAddr: 0x69C0, symBinAddr: 0x1A5DD00, symSize: 0x50 }
  - { offset: 0x5647CF, size: 0x8, addend: 0x0, symName: __ZNK5boost6system6detail22generic_error_category7messageEi, symObjAddr: 0x0, symBinAddr: 0x1A57B40, symSize: 0xC0 }
  - { offset: 0x564E22, size: 0x8, addend: 0x0, symName: __ZNK5boost6system14error_category23default_error_conditionEi, symObjAddr: 0xD0, symBinAddr: 0x1A57C00, symSize: 0x10 }
  - { offset: 0x565818, size: 0x8, addend: 0x0, symName: __ZN5boost6detail16thread_data_baseD2Ev, symObjAddr: 0xE0, symBinAddr: 0x1A57C10, symSize: 0x2B0 }
  - { offset: 0x566550, size: 0x8, addend: 0x0, symName: __ZN5boost5mutexD1Ev, symObjAddr: 0x390, symBinAddr: 0x1A57EC0, symSize: 0x30 }
  - { offset: 0x5665D7, size: 0x8, addend: 0x0, symName: __ZN5boost10shared_ptrINS_6detail16thread_data_baseEED1Ev, symObjAddr: 0x3C0, symBinAddr: 0x1A57EF0, symSize: 0x40 }
  - { offset: 0x566706, size: 0x8, addend: 0x0, symName: __ZN5boost23enable_shared_from_thisINS_6detail16thread_data_baseEED2Ev, symObjAddr: 0x400, symBinAddr: 0x1A57F30, symSize: 0x30 }
  - { offset: 0x566801, size: 0x8, addend: 0x0, symName: __ZN5boost6detail16thread_data_baseD1Ev, symObjAddr: 0x430, symBinAddr: 0x1A57F60, symSize: 0x10 }
  - { offset: 0x566837, size: 0x8, addend: 0x0, symName: __ZN5boost6detail16thread_data_baseD0Ev, symObjAddr: 0x440, symBinAddr: 0x1A57F70, symSize: 0x10 }
  - { offset: 0x566A2B, size: 0x8, addend: 0x0, symName: __ZN5boost10shared_ptrINS_6detail16thread_data_baseEE5resetIS2_EEvPT_, symObjAddr: 0x5B0, symBinAddr: 0x1A58080, symSize: 0xB0 }
  - { offset: 0x566F05, size: 0x8, addend: 0x0, symName: __ZN5boost6threadC2Ev, symObjAddr: 0x6D0, symBinAddr: 0x1A58130, symSize: 0x10 }
  - { offset: 0x567008, size: 0x8, addend: 0x0, symName: __ZN5boost6threadC1Ev, symObjAddr: 0x6E0, symBinAddr: 0x1A58140, symSize: 0x10 }
  - { offset: 0x567274, size: 0x8, addend: 0x0, symName: __ZN5boost6thread21start_thread_noexceptEv, symObjAddr: 0x6F0, symBinAddr: 0x1A58150, symSize: 0xC0 }
  - { offset: 0x567C63, size: 0x8, addend: 0x0, symName: __ZN5boost12_GLOBAL__N_112thread_proxyEPv, symObjAddr: 0x7B0, symBinAddr: 0x1A58210, symSize: 0x270 }
  - { offset: 0x5685A3, size: 0x8, addend: 0x0, symName: __ZN5boost6thread21start_thread_noexceptERKNS_17thread_attributesE, symObjAddr: 0xA20, symBinAddr: 0x1A58480, symSize: 0x190 }
  - { offset: 0x568EB3, size: 0x8, addend: 0x0, symName: __ZNK5boost6thread15get_thread_infoEv, symObjAddr: 0xBB0, symBinAddr: 0x1A58610, symSize: 0x20 }
  - { offset: 0x568EBB, size: 0x8, addend: 0x0, symName: __ZN5boost6thread13join_noexceptEv, symObjAddr: 0xBD0, symBinAddr: 0x1A58630, symSize: 0x2F0 }
  - { offset: 0x569032, size: 0x8, addend: 0x0, symName: __ZN5boost6thread13join_noexceptEv, symObjAddr: 0xBD0, symBinAddr: 0x1A58630, symSize: 0x2F0 }
  - { offset: 0x569BD3, size: 0x8, addend: 0x0, symName: __ZN5boost18condition_variable4waitERNS_11unique_lockINS_5mutexEEE, symObjAddr: 0xEC0, symBinAddr: 0x1A58920, symSize: 0x100 }
  - { offset: 0x569E83, size: 0x8, addend: 0x0, symName: __ZN5boost11unique_lockINS_5mutexEED1Ev, symObjAddr: 0xFC0, symBinAddr: 0x1A58A20, symSize: 0x30 }
  - { offset: 0x569F61, size: 0x8, addend: 0x0, symName: __ZN5boost10lock_guardINS_5mutexEED1Ev, symObjAddr: 0xFF0, symBinAddr: 0x1A58A50, symSize: 0x30 }
  - { offset: 0x56A012, size: 0x8, addend: 0x0, symName: __ZN5boost6thread26do_try_join_until_noexceptERKNS_6detail23real_platform_timepointERb, symObjAddr: 0x1020, symBinAddr: 0x1A58A80, symSize: 0x350 }
  - { offset: 0x56AA3F, size: 0x8, addend: 0x0, symName: __ZN5boost18condition_variable13do_wait_untilERNS_11unique_lockINS_5mutexEEERKNS_6detail23real_platform_timepointE, symObjAddr: 0x1370, symBinAddr: 0x1A58DD0, symSize: 0x100 }
  - { offset: 0x56AD03, size: 0x8, addend: 0x0, symName: __ZNK5boost6thread8joinableEv, symObjAddr: 0x1470, symBinAddr: 0x1A58ED0, symSize: 0x50 }
  - { offset: 0x56AF6F, size: 0x8, addend: 0x0, symName: __ZN5boost6thread6detachEv, symObjAddr: 0x14C0, symBinAddr: 0x1A58F20, symSize: 0x1A0 }
  - { offset: 0x56B50A, size: 0x8, addend: 0x0, symName: __ZN5boost6thread20hardware_concurrencyEv, symObjAddr: 0x16A0, symBinAddr: 0x1A59100, symSize: 0x50 }
  - { offset: 0x56B54C, size: 0x8, addend: 0x0, symName: __ZN5boost6thread20physical_concurrencyEv, symObjAddr: 0x16F0, symBinAddr: 0x1A59150, symSize: 0x50 }
  - { offset: 0x56B58E, size: 0x8, addend: 0x0, symName: __ZN5boost6thread9interruptEv, symObjAddr: 0x1740, symBinAddr: 0x1A591A0, symSize: 0x1E0 }
  - { offset: 0x56BC86, size: 0x8, addend: 0x0, symName: __ZN5boost7pthread25pthread_mutex_scoped_lockD1Ev, symObjAddr: 0x1920, symBinAddr: 0x1A59380, symSize: 0x40 }
  - { offset: 0x56BD2D, size: 0x8, addend: 0x0, symName: __ZNK5boost6thread22interruption_requestedEv, symObjAddr: 0x1960, symBinAddr: 0x1A593C0, symSize: 0x160 }
  - { offset: 0x56C2AC, size: 0x8, addend: 0x0, symName: __ZN5boost6thread13native_handleEv, symObjAddr: 0x1AC0, symBinAddr: 0x1A59520, symSize: 0x170 }
  - { offset: 0x56C899, size: 0x8, addend: 0x0, symName: __ZN5boost11this_thread20disable_interruptionC2Ev, symObjAddr: 0x1EC0, symBinAddr: 0x1A59920, symSize: 0x50 }
  - { offset: 0x56C918, size: 0x8, addend: 0x0, symName: __ZN5boost11this_thread20disable_interruptionC1Ev, symObjAddr: 0x1F10, symBinAddr: 0x1A59970, symSize: 0x50 }
  - { offset: 0x56C995, size: 0x8, addend: 0x0, symName: __ZN5boost11this_thread20disable_interruptionD2Ev, symObjAddr: 0x1F60, symBinAddr: 0x1A599C0, symSize: 0x30 }
  - { offset: 0x56C99D, size: 0x8, addend: 0x0, symName: __ZN5boost11this_thread20disable_interruptionD1Ev, symObjAddr: 0x1F90, symBinAddr: 0x1A599F0, symSize: 0x30 }
  - { offset: 0x56C9EA, size: 0x8, addend: 0x0, symName: __ZN5boost11this_thread20disable_interruptionD1Ev, symObjAddr: 0x1F90, symBinAddr: 0x1A599F0, symSize: 0x30 }
  - { offset: 0x56C9F2, size: 0x8, addend: 0x0, symName: __ZN5boost11this_thread20restore_interruptionC2ERNS0_20disable_interruptionE, symObjAddr: 0x1FC0, symBinAddr: 0x1A59A20, symSize: 0x20 }
  - { offset: 0x56CA6D, size: 0x8, addend: 0x0, symName: __ZN5boost11this_thread20restore_interruptionC2ERNS0_20disable_interruptionE, symObjAddr: 0x1FC0, symBinAddr: 0x1A59A20, symSize: 0x20 }
  - { offset: 0x56CAE9, size: 0x8, addend: 0x0, symName: __ZN5boost11this_thread20restore_interruptionC1ERNS0_20disable_interruptionE, symObjAddr: 0x1FE0, symBinAddr: 0x1A59A40, symSize: 0x20 }
  - { offset: 0x56CB68, size: 0x8, addend: 0x0, symName: __ZN5boost11this_thread20restore_interruptionD2Ev, symObjAddr: 0x2000, symBinAddr: 0x1A59A60, symSize: 0x30 }
  - { offset: 0x56CBBD, size: 0x8, addend: 0x0, symName: __ZN5boost11this_thread20restore_interruptionD1Ev, symObjAddr: 0x2030, symBinAddr: 0x1A59A90, symSize: 0x30 }
  - { offset: 0x56D72A, size: 0x8, addend: 0x0, symName: __ZN5boost10shared_ptrINS_6detail17shared_state_baseEED1Ev, symObjAddr: 0x26A0, symBinAddr: 0x1A59FD0, symSize: 0x40 }
  - { offset: 0x56D881, size: 0x8, addend: 0x0, symName: __ZNK5boost6system14error_category10equivalentEiRKNS0_15error_conditionE, symObjAddr: 0x26E0, symBinAddr: 0x1A5A010, symSize: 0x90 }
  - { offset: 0x56DA0A, size: 0x8, addend: 0x0, symName: __ZNK5boost6system14error_category10equivalentERKNS0_10error_codeEi, symObjAddr: 0x2770, symBinAddr: 0x1A5A0A0, symSize: 0xB0 }
  - { offset: 0x56DB5B, size: 0x8, addend: 0x0, symName: __ZNK5boost6system14error_category6failedEi, symObjAddr: 0x2820, symBinAddr: 0x1A5A150, symSize: 0x10 }
  - { offset: 0x56DB9F, size: 0x8, addend: 0x0, symName: __ZNK5boost6system6detail22generic_error_category4nameEv, symObjAddr: 0x2830, symBinAddr: 0x1A5A160, symSize: 0x10 }
  - { offset: 0x56DBD1, size: 0x8, addend: 0x0, symName: __ZNK5boost6system6detail22generic_error_category7messageEiPcm, symObjAddr: 0x2840, symBinAddr: 0x1A5A170, symSize: 0x60 }
  - { offset: 0x56E0E2, size: 0x8, addend: 0x0, symName: __ZN5boost6detail16thread_data_base25notify_all_at_thread_exitEPNS_18condition_variableEPNS_5mutexE, symObjAddr: 0x28A0, symBinAddr: 0x1A5A1D0, symSize: 0x150 }
  - { offset: 0x56EDDC, size: 0x8, addend: 0x0, symName: __ZN5boost13exception_ptrD1Ev, symObjAddr: 0x2CA0, symBinAddr: 0x1A5A5D0, symSize: 0x40 }
  - { offset: 0x56F235, size: 0x8, addend: 0x0, symName: __ZN5boost6detail17shared_state_base22mark_finished_internalERNS_11unique_lockINS_5mutexEEE, symObjAddr: 0x2F60, symBinAddr: 0x1A5A890, symSize: 0x100 }
  - { offset: 0x56F53D, size: 0x8, addend: 0x0, symName: __ZN5boost6detail12shared_countD1Ev, symObjAddr: 0x3060, symBinAddr: 0x1A5A990, symSize: 0x40 }
  - { offset: 0x56F6C7, size: 0x8, addend: 0x0, symName: __ZN5boost6detail12_GLOBAL__N_114tls_destructorEPv, symObjAddr: 0x30A0, symBinAddr: 0x1A5A9D0, symSize: 0x200 }
  - { offset: 0x56FF62, size: 0x8, addend: 0x0, symName: __ZN5boost12bad_weak_ptrD1Ev, symObjAddr: 0x3300, symBinAddr: 0x1A5AC30, symSize: 0x10 }
  - { offset: 0x56FFDE, size: 0x8, addend: 0x0, symName: __ZN5boost10wrapexceptINS_12bad_weak_ptrEED1Ev, symObjAddr: 0x3310, symBinAddr: 0x1A5AC40, symSize: 0x50 }
  - { offset: 0x5701CE, size: 0x8, addend: 0x0, symName: __ZNK5boost10wrapexceptINS_12bad_weak_ptrEE5cloneEv, symObjAddr: 0x3360, symBinAddr: 0x1A5AC90, symSize: 0xE0 }
  - { offset: 0x5703DB, size: 0x8, addend: 0x0, symName: __ZNK5boost10wrapexceptINS_12bad_weak_ptrEE7rethrowEv, symObjAddr: 0x3440, symBinAddr: 0x1A5AD70, symSize: 0x50 }
  - { offset: 0x570434, size: 0x8, addend: 0x0, symName: __ZN5boost10wrapexceptINS_12bad_weak_ptrEED0Ev, symObjAddr: 0x3490, symBinAddr: 0x1A5ADC0, symSize: 0x60 }
  - { offset: 0x57054A, size: 0x8, addend: 0x0, symName: __ZThn8_N5boost10wrapexceptINS_12bad_weak_ptrEED1Ev, symObjAddr: 0x34F0, symBinAddr: 0x1A5AE20, symSize: 0x50 }
  - { offset: 0x570685, size: 0x8, addend: 0x0, symName: __ZThn8_N5boost10wrapexceptINS_12bad_weak_ptrEED0Ev, symObjAddr: 0x3540, symBinAddr: 0x1A5AE70, symSize: 0x60 }
  - { offset: 0x5707A9, size: 0x8, addend: 0x0, symName: __ZNK5boost12bad_weak_ptr4whatEv, symObjAddr: 0x35A0, symBinAddr: 0x1A5AED0, symSize: 0x10 }
  - { offset: 0x5707DB, size: 0x8, addend: 0x0, symName: __ZThn16_N5boost10wrapexceptINS_12bad_weak_ptrEED1Ev, symObjAddr: 0x35B0, symBinAddr: 0x1A5AEE0, symSize: 0x50 }
  - { offset: 0x5708F5, size: 0x8, addend: 0x0, symName: __ZThn16_N5boost10wrapexceptINS_12bad_weak_ptrEED0Ev, symObjAddr: 0x3600, symBinAddr: 0x1A5AF30, symSize: 0x60 }
  - { offset: 0x570A1D, size: 0x8, addend: 0x0, symName: __ZN5boost12bad_weak_ptrD0Ev, symObjAddr: 0x3680, symBinAddr: 0x1A5AF90, symSize: 0x20 }
  - { offset: 0x570AAB, size: 0x8, addend: 0x0, symName: __ZN5boost10wrapexceptINS_12bad_weak_ptrEEC1ERKS2_, symObjAddr: 0x36A0, symBinAddr: 0x1A5AFB0, symSize: 0xA0 }
  - { offset: 0x570C2C, size: 0x8, addend: 0x0, symName: __ZN5boost6detail20interruption_checker16unlock_if_lockedEv, symObjAddr: 0x3BE0, symBinAddr: 0x1A5B050, symSize: 0x140 }
  - { offset: 0x571042, size: 0x8, addend: 0x0, symName: __ZN5boost15condition_errorC1EiPKc, symObjAddr: 0x3D70, symBinAddr: 0x1A5B1E0, symSize: 0x90 }
  - { offset: 0x57104A, size: 0x8, addend: 0x0, symName: __ZN5boost15condition_errorD1Ev, symObjAddr: 0x3E00, symBinAddr: 0x1A5B270, symSize: 0x10 }
  - { offset: 0x571158, size: 0x8, addend: 0x0, symName: __ZN5boost15condition_errorD1Ev, symObjAddr: 0x3E00, symBinAddr: 0x1A5B270, symSize: 0x10 }
  - { offset: 0x5711F8, size: 0x8, addend: 0x0, symName: __ZN5boost6detail20interruption_checkerC2EP23_opaque_pthread_mutex_tP22_opaque_pthread_cond_t, symObjAddr: 0x3E10, symBinAddr: 0x1A5B280, symSize: 0x1B0 }
  - { offset: 0x571608, size: 0x8, addend: 0x0, symName: __ZN5boost11unique_lockINS_5mutexEE6unlockEv, symObjAddr: 0x3FC0, symBinAddr: 0x1A5B430, symSize: 0xA0 }
  - { offset: 0x571728, size: 0x8, addend: 0x0, symName: __ZN5boost10lock_errorC1EiPKc, symObjAddr: 0x40B0, symBinAddr: 0x1A5B520, symSize: 0x90 }
  - { offset: 0x571730, size: 0x8, addend: 0x0, symName: __ZN5boost10lock_errorD1Ev, symObjAddr: 0x4140, symBinAddr: 0x1A5B5B0, symSize: 0x10 }
  - { offset: 0x571847, size: 0x8, addend: 0x0, symName: __ZN5boost10lock_errorD1Ev, symObjAddr: 0x4140, symBinAddr: 0x1A5B5B0, symSize: 0x10 }
  - { offset: 0x5719F1, size: 0x8, addend: 0x0, symName: __ZN5boost10wrapexceptINS_10lock_errorEEC1ERKS1_, symObjAddr: 0x4150, symBinAddr: 0x1A5B5C0, symSize: 0x80 }
  - { offset: 0x571B92, size: 0x8, addend: 0x0, symName: __ZN5boost10wrapexceptINS_10lock_errorEED1Ev, symObjAddr: 0x41D0, symBinAddr: 0x1A5B640, symSize: 0x50 }
  - { offset: 0x571DAC, size: 0x8, addend: 0x0, symName: __ZNK5boost10wrapexceptINS_10lock_errorEE5cloneEv, symObjAddr: 0x4220, symBinAddr: 0x1A5B690, symSize: 0x100 }
  - { offset: 0x5720B1, size: 0x8, addend: 0x0, symName: __ZNK5boost10wrapexceptINS_10lock_errorEE7rethrowEv, symObjAddr: 0x4320, symBinAddr: 0x1A5B790, symSize: 0x50 }
  - { offset: 0x57210A, size: 0x8, addend: 0x0, symName: __ZN5boost10wrapexceptINS_10lock_errorEED0Ev, symObjAddr: 0x4370, symBinAddr: 0x1A5B7E0, symSize: 0x60 }
  - { offset: 0x572274, size: 0x8, addend: 0x0, symName: __ZThn8_N5boost10wrapexceptINS_10lock_errorEED1Ev, symObjAddr: 0x43D0, symBinAddr: 0x1A5B840, symSize: 0x50 }
  - { offset: 0x572407, size: 0x8, addend: 0x0, symName: __ZThn8_N5boost10wrapexceptINS_10lock_errorEED0Ev, symObjAddr: 0x4420, symBinAddr: 0x1A5B890, symSize: 0x60 }
  - { offset: 0x57257F, size: 0x8, addend: 0x0, symName: __ZThn48_N5boost10wrapexceptINS_10lock_errorEED1Ev, symObjAddr: 0x4480, symBinAddr: 0x1A5B8F0, symSize: 0x50 }
  - { offset: 0x5726F1, size: 0x8, addend: 0x0, symName: __ZThn48_N5boost10wrapexceptINS_10lock_errorEED0Ev, symObjAddr: 0x44D0, symBinAddr: 0x1A5B940, symSize: 0x60 }
  - { offset: 0x57286D, size: 0x8, addend: 0x0, symName: __ZN5boost10lock_errorD0Ev, symObjAddr: 0x4530, symBinAddr: 0x1A5B9A0, symSize: 0x20 }
  - { offset: 0x57294D, size: 0x8, addend: 0x0, symName: __ZN5boost6system12system_errorD1Ev, symObjAddr: 0x4550, symBinAddr: 0x1A5B9C0, symSize: 0x10 }
  - { offset: 0x5729C9, size: 0x8, addend: 0x0, symName: __ZN5boost6system12system_errorD0Ev, symObjAddr: 0x4560, symBinAddr: 0x1A5B9D0, symSize: 0x20 }
  - { offset: 0x572A57, size: 0x8, addend: 0x0, symName: __ZN5boost10wrapexceptINS_10lock_errorEEC1ERKS2_, symObjAddr: 0x4580, symBinAddr: 0x1A5B9F0, symSize: 0xD0 }
  - { offset: 0x572EBF, size: 0x8, addend: 0x0, symName: __ZN5boost6system12system_errorC2ERKNS0_10error_codeEPKc, symObjAddr: 0x4650, symBinAddr: 0x1A5BAC0, symSize: 0x250 }
  - { offset: 0x574329, size: 0x8, addend: 0x0, symName: __ZNK5boost6system10error_code4whatEv, symObjAddr: 0x48A0, symBinAddr: 0x1A5BD10, symSize: 0x130 }
  - { offset: 0x574C00, size: 0x8, addend: 0x0, symName: __ZNK5boost6system10error_code7messageEv, symObjAddr: 0x49D0, symBinAddr: 0x1A5BE40, symSize: 0xF0 }
  - { offset: 0x575366, size: 0x8, addend: 0x0, symName: __ZNK5boost6system10error_code9to_stringEv, symObjAddr: 0x4AC0, symBinAddr: 0x1A5BF30, symSize: 0x1E0 }
  - { offset: 0x57536E, size: 0x8, addend: 0x0, symName: __ZNK5boost15source_location9to_stringEv, symObjAddr: 0x4CA0, symBinAddr: 0x1A5C110, symSize: 0x1D0 }
  - { offset: 0x576039, size: 0x8, addend: 0x0, symName: __ZNK5boost15source_location9to_stringEv, symObjAddr: 0x4CA0, symBinAddr: 0x1A5C110, symSize: 0x1D0 }
  - { offset: 0x576E05, size: 0x8, addend: 0x0, symName: __ZN5boost11unique_lockINS_5mutexEE4lockEv, symObjAddr: 0x4F10, symBinAddr: 0x1A5C380, symSize: 0xC0 }
  - { offset: 0x576F0C, size: 0x8, addend: 0x0, symName: __ZN5boost10wrapexceptINS_15condition_errorEEC1ERKS1_, symObjAddr: 0x4FD0, symBinAddr: 0x1A5C440, symSize: 0x80 }
  - { offset: 0x577075, size: 0x8, addend: 0x0, symName: __ZN5boost10wrapexceptINS_15condition_errorEED1Ev, symObjAddr: 0x5050, symBinAddr: 0x1A5C4C0, symSize: 0x50 }
  - { offset: 0x577263, size: 0x8, addend: 0x0, symName: __ZNK5boost10wrapexceptINS_15condition_errorEE5cloneEv, symObjAddr: 0x50A0, symBinAddr: 0x1A5C510, symSize: 0x100 }
  - { offset: 0x577506, size: 0x8, addend: 0x0, symName: __ZNK5boost10wrapexceptINS_15condition_errorEE7rethrowEv, symObjAddr: 0x51A0, symBinAddr: 0x1A5C610, symSize: 0x50 }
  - { offset: 0x57755F, size: 0x8, addend: 0x0, symName: __ZN5boost10wrapexceptINS_15condition_errorEED0Ev, symObjAddr: 0x51F0, symBinAddr: 0x1A5C660, symSize: 0x60 }
  - { offset: 0x57769F, size: 0x8, addend: 0x0, symName: __ZThn8_N5boost10wrapexceptINS_15condition_errorEED1Ev, symObjAddr: 0x5250, symBinAddr: 0x1A5C6C0, symSize: 0x50 }
  - { offset: 0x577806, size: 0x8, addend: 0x0, symName: __ZThn8_N5boost10wrapexceptINS_15condition_errorEED0Ev, symObjAddr: 0x52A0, symBinAddr: 0x1A5C710, symSize: 0x60 }
  - { offset: 0x577954, size: 0x8, addend: 0x0, symName: __ZThn48_N5boost10wrapexceptINS_15condition_errorEED1Ev, symObjAddr: 0x5300, symBinAddr: 0x1A5C770, symSize: 0x50 }
  - { offset: 0x577A9A, size: 0x8, addend: 0x0, symName: __ZThn48_N5boost10wrapexceptINS_15condition_errorEED0Ev, symObjAddr: 0x5350, symBinAddr: 0x1A5C7C0, symSize: 0x60 }
  - { offset: 0x577BEC, size: 0x8, addend: 0x0, symName: __ZN5boost15condition_errorD0Ev, symObjAddr: 0x53B0, symBinAddr: 0x1A5C820, symSize: 0x20 }
  - { offset: 0x577CA4, size: 0x8, addend: 0x0, symName: __ZN5boost10wrapexceptINS_15condition_errorEEC1ERKS2_, symObjAddr: 0x53D0, symBinAddr: 0x1A5C840, symSize: 0xD0 }
  - { offset: 0x5782EE, size: 0x8, addend: 0x0, symName: __ZNSt3__16vectorIN5boost10shared_ptrINS1_6detail17shared_state_baseEEENS_9allocatorIS5_EEE21__push_back_slow_pathIRKS5_EEPS5_OT_, symObjAddr: 0x54A0, symBinAddr: 0x1A5C910, symSize: 0x180 }
  - { offset: 0x578B61, size: 0x8, addend: 0x0, symName: __ZNKSt3__16vectorIN5boost10shared_ptrINS1_6detail17shared_state_baseEEENS_9allocatorIS5_EEE20__throw_length_errorB8ne180100Ev, symObjAddr: 0x5620, symBinAddr: 0x1A5CA90, symSize: 0x10 }
  - { offset: 0x578B95, size: 0x8, addend: 0x0, symName: __ZNKSt3__16vectorINS_4pairIPN5boost18condition_variableEPNS2_5mutexEEENS_9allocatorIS7_EEE20__throw_length_errorB8ne180100Ev, symObjAddr: 0x56F0, symBinAddr: 0x1A5CAA0, symSize: 0x10 }
  - { offset: 0x578BC9, size: 0x8, addend: 0x0, symName: __ZN5boost16exception_detail10clone_implINS0_10bad_alloc_EEC1ERKS3_, symObjAddr: 0x5750, symBinAddr: 0x1A5CAB0, symSize: 0x80 }
  - { offset: 0x578D28, size: 0x8, addend: 0x0, symName: __ZN5boost10shared_ptrIKNS_16exception_detail10clone_baseEED1Ev, symObjAddr: 0x57D0, symBinAddr: 0x1A5CB30, symSize: 0x40 }
  - { offset: 0x578E57, size: 0x8, addend: 0x0, symName: __ZN5boost16exception_detail10clone_implINS0_10bad_alloc_EED1Ev, symObjAddr: 0x5810, symBinAddr: 0x1A5CB70, symSize: 0x50 }
  - { offset: 0x578F49, size: 0x8, addend: 0x0, symName: __ZN5boost16exception_detail10bad_alloc_D1Ev, symObjAddr: 0x5860, symBinAddr: 0x1A5CBC0, symSize: 0x50 }
  - { offset: 0x579019, size: 0x8, addend: 0x0, symName: __ZN5boost16exception_detail10bad_alloc_D0Ev, symObjAddr: 0x58B0, symBinAddr: 0x1A5CC10, symSize: 0x50 }
  - { offset: 0x579109, size: 0x8, addend: 0x0, symName: __ZThn40_N5boost16exception_detail10bad_alloc_D1Ev, symObjAddr: 0x5900, symBinAddr: 0x1A5CC60, symSize: 0x50 }
  - { offset: 0x5791FE, size: 0x8, addend: 0x0, symName: __ZThn40_N5boost16exception_detail10bad_alloc_D0Ev, symObjAddr: 0x5950, symBinAddr: 0x1A5CCB0, symSize: 0x50 }
  - { offset: 0x5792D2, size: 0x8, addend: 0x0, symName: __ZN5boost16exception_detail10bad_alloc_D2Ev, symObjAddr: 0x59A0, symBinAddr: 0x1A5CD00, symSize: 0x50 }
  - { offset: 0x579382, size: 0x8, addend: 0x0, symName: __ZN5boost16exception_detail10clone_implINS0_10bad_alloc_EED0Ev, symObjAddr: 0x59F0, symBinAddr: 0x1A5CD50, symSize: 0x50 }
  - { offset: 0x5794D4, size: 0x8, addend: 0x0, symName: __ZNK5boost16exception_detail10clone_implINS0_10bad_alloc_EE5cloneEv, symObjAddr: 0x5A40, symBinAddr: 0x1A5CDA0, symSize: 0xC0 }
  - { offset: 0x5794DC, size: 0x8, addend: 0x0, symName: __ZNK5boost16exception_detail10clone_implINS0_10bad_alloc_EE7rethrowEv, symObjAddr: 0x5B00, symBinAddr: 0x1A5CE60, symSize: 0x50 }
  - { offset: 0x579654, size: 0x8, addend: 0x0, symName: __ZNK5boost16exception_detail10clone_implINS0_10bad_alloc_EE7rethrowEv, symObjAddr: 0x5B00, symBinAddr: 0x1A5CE60, symSize: 0x50 }
  - { offset: 0x579683, size: 0x8, addend: 0x0, symName: __ZThn40_N5boost16exception_detail10clone_implINS0_10bad_alloc_EED1Ev, symObjAddr: 0x5B50, symBinAddr: 0x1A5CEB0, symSize: 0x50 }
  - { offset: 0x579797, size: 0x8, addend: 0x0, symName: __ZThn40_N5boost16exception_detail10clone_implINS0_10bad_alloc_EED0Ev, symObjAddr: 0x5BA0, symBinAddr: 0x1A5CF00, symSize: 0x50 }
  - { offset: 0x5798A9, size: 0x8, addend: 0x0, symName: __ZTv0_n24_NK5boost16exception_detail10clone_implINS0_10bad_alloc_EE5cloneEv, symObjAddr: 0x5BF0, symBinAddr: 0x1A5CF50, symSize: 0x110 }
  - { offset: 0x579AD1, size: 0x8, addend: 0x0, symName: __ZTv0_n32_NK5boost16exception_detail10clone_implINS0_10bad_alloc_EE7rethrowEv, symObjAddr: 0x5D00, symBinAddr: 0x1A5D060, symSize: 0x60 }
  - { offset: 0x579B1B, size: 0x8, addend: 0x0, symName: __ZTv0_n40_N5boost16exception_detail10clone_implINS0_10bad_alloc_EED1Ev, symObjAddr: 0x5D60, symBinAddr: 0x1A5D0C0, symSize: 0x60 }
  - { offset: 0x579C10, size: 0x8, addend: 0x0, symName: __ZTv0_n40_N5boost16exception_detail10clone_implINS0_10bad_alloc_EED0Ev, symObjAddr: 0x5DC0, symBinAddr: 0x1A5D120, symSize: 0x60 }
  - { offset: 0x579E10, size: 0x8, addend: 0x0, symName: __ZN5boost10shared_ptrIKNS_16exception_detail10clone_baseEEC2INS1_10clone_implINS1_10bad_alloc_EEEEEPT_, symObjAddr: 0x5E20, symBinAddr: 0x1A5D180, symSize: 0xA0 }
  - { offset: 0x57A00C, size: 0x8, addend: 0x0, symName: __ZN5boost6detail17sp_counted_impl_pINS_16exception_detail10clone_implINS2_10bad_alloc_EEEED1Ev, symObjAddr: 0x5EC0, symBinAddr: 0x1A5D220, symSize: 0x10 }
  - { offset: 0x57A044, size: 0x8, addend: 0x0, symName: __ZN5boost6detail17sp_counted_impl_pINS_16exception_detail10clone_implINS2_10bad_alloc_EEEED0Ev, symObjAddr: 0x5ED0, symBinAddr: 0x1A5D230, symSize: 0x10 }
  - { offset: 0x57A07C, size: 0x8, addend: 0x0, symName: __ZN5boost6detail17sp_counted_impl_pINS_16exception_detail10clone_implINS2_10bad_alloc_EEEE7disposeEv, symObjAddr: 0x5EE0, symBinAddr: 0x1A5D240, symSize: 0x20 }
  - { offset: 0x57A0DA, size: 0x8, addend: 0x0, symName: __ZN5boost6detail17sp_counted_impl_pINS_16exception_detail10clone_implINS2_10bad_alloc_EEEE11get_deleterERKSt9type_info, symObjAddr: 0x5F20, symBinAddr: 0x1A5D260, symSize: 0x10 }
  - { offset: 0x57A11A, size: 0x8, addend: 0x0, symName: __ZN5boost6detail17sp_counted_impl_pINS_16exception_detail10clone_implINS2_10bad_alloc_EEEE17get_local_deleterERKSt9type_info, symObjAddr: 0x5F30, symBinAddr: 0x1A5D270, symSize: 0x10 }
  - { offset: 0x57A15A, size: 0x8, addend: 0x0, symName: __ZN5boost6detail17sp_counted_impl_pINS_16exception_detail10clone_implINS2_10bad_alloc_EEEE19get_untyped_deleterEv, symObjAddr: 0x5F40, symBinAddr: 0x1A5D280, symSize: 0x10 }
  - { offset: 0x57A18C, size: 0x8, addend: 0x0, symName: __ZN5boost16exception_detail10clone_implINS0_14bad_exception_EEC1ERKS3_, symObjAddr: 0x5F50, symBinAddr: 0x1A5D290, symSize: 0x80 }
  - { offset: 0x57A2EB, size: 0x8, addend: 0x0, symName: __ZN5boost16exception_detail10clone_implINS0_14bad_exception_EED1Ev, symObjAddr: 0x5FD0, symBinAddr: 0x1A5D310, symSize: 0x50 }
  - { offset: 0x57A3DD, size: 0x8, addend: 0x0, symName: __ZN5boost16exception_detail14bad_exception_D1Ev, symObjAddr: 0x6020, symBinAddr: 0x1A5D360, symSize: 0x50 }
  - { offset: 0x57A4AD, size: 0x8, addend: 0x0, symName: __ZN5boost16exception_detail14bad_exception_D0Ev, symObjAddr: 0x6070, symBinAddr: 0x1A5D3B0, symSize: 0x50 }
  - { offset: 0x57A59D, size: 0x8, addend: 0x0, symName: __ZThn40_N5boost16exception_detail14bad_exception_D1Ev, symObjAddr: 0x60C0, symBinAddr: 0x1A5D400, symSize: 0x50 }
  - { offset: 0x57A692, size: 0x8, addend: 0x0, symName: __ZThn40_N5boost16exception_detail14bad_exception_D0Ev, symObjAddr: 0x6110, symBinAddr: 0x1A5D450, symSize: 0x50 }
  - { offset: 0x57A766, size: 0x8, addend: 0x0, symName: __ZN5boost16exception_detail14bad_exception_D2Ev, symObjAddr: 0x6160, symBinAddr: 0x1A5D4A0, symSize: 0x50 }
  - { offset: 0x57A816, size: 0x8, addend: 0x0, symName: __ZN5boost16exception_detail10clone_implINS0_14bad_exception_EED0Ev, symObjAddr: 0x61B0, symBinAddr: 0x1A5D4F0, symSize: 0x50 }
  - { offset: 0x57A968, size: 0x8, addend: 0x0, symName: __ZNK5boost16exception_detail10clone_implINS0_14bad_exception_EE5cloneEv, symObjAddr: 0x6200, symBinAddr: 0x1A5D540, symSize: 0xC0 }
  - { offset: 0x57A970, size: 0x8, addend: 0x0, symName: __ZNK5boost16exception_detail10clone_implINS0_14bad_exception_EE7rethrowEv, symObjAddr: 0x62C0, symBinAddr: 0x1A5D600, symSize: 0x50 }
  - { offset: 0x57AAE8, size: 0x8, addend: 0x0, symName: __ZNK5boost16exception_detail10clone_implINS0_14bad_exception_EE7rethrowEv, symObjAddr: 0x62C0, symBinAddr: 0x1A5D600, symSize: 0x50 }
  - { offset: 0x57AB17, size: 0x8, addend: 0x0, symName: __ZThn40_N5boost16exception_detail10clone_implINS0_14bad_exception_EED1Ev, symObjAddr: 0x6310, symBinAddr: 0x1A5D650, symSize: 0x50 }
  - { offset: 0x57AC2B, size: 0x8, addend: 0x0, symName: __ZThn40_N5boost16exception_detail10clone_implINS0_14bad_exception_EED0Ev, symObjAddr: 0x6360, symBinAddr: 0x1A5D6A0, symSize: 0x50 }
  - { offset: 0x57AD3D, size: 0x8, addend: 0x0, symName: __ZTv0_n24_NK5boost16exception_detail10clone_implINS0_14bad_exception_EE5cloneEv, symObjAddr: 0x63B0, symBinAddr: 0x1A5D6F0, symSize: 0x110 }
  - { offset: 0x57AF65, size: 0x8, addend: 0x0, symName: __ZTv0_n32_NK5boost16exception_detail10clone_implINS0_14bad_exception_EE7rethrowEv, symObjAddr: 0x64C0, symBinAddr: 0x1A5D800, symSize: 0x60 }
  - { offset: 0x57AFAF, size: 0x8, addend: 0x0, symName: __ZTv0_n40_N5boost16exception_detail10clone_implINS0_14bad_exception_EED1Ev, symObjAddr: 0x6520, symBinAddr: 0x1A5D860, symSize: 0x60 }
  - { offset: 0x57B0A4, size: 0x8, addend: 0x0, symName: __ZTv0_n40_N5boost16exception_detail10clone_implINS0_14bad_exception_EED0Ev, symObjAddr: 0x6580, symBinAddr: 0x1A5D8C0, symSize: 0x60 }
  - { offset: 0x57B281, size: 0x8, addend: 0x0, symName: __ZN5boost10shared_ptrIKNS_16exception_detail10clone_baseEEC2INS1_10clone_implINS1_14bad_exception_EEEEEPT_, symObjAddr: 0x65E0, symBinAddr: 0x1A5D920, symSize: 0xA0 }
  - { offset: 0x57B47D, size: 0x8, addend: 0x0, symName: __ZN5boost6detail17sp_counted_impl_pINS_16exception_detail10clone_implINS2_14bad_exception_EEEED1Ev, symObjAddr: 0x6680, symBinAddr: 0x1A5D9C0, symSize: 0x10 }
  - { offset: 0x57B4B5, size: 0x8, addend: 0x0, symName: __ZN5boost6detail17sp_counted_impl_pINS_16exception_detail10clone_implINS2_14bad_exception_EEEED0Ev, symObjAddr: 0x6690, symBinAddr: 0x1A5D9D0, symSize: 0x10 }
  - { offset: 0x57B4ED, size: 0x8, addend: 0x0, symName: __ZN5boost6detail17sp_counted_impl_pINS_16exception_detail10clone_implINS2_14bad_exception_EEEE7disposeEv, symObjAddr: 0x66A0, symBinAddr: 0x1A5D9E0, symSize: 0x20 }
  - { offset: 0x57B54B, size: 0x8, addend: 0x0, symName: __ZN5boost6detail17sp_counted_impl_pINS_16exception_detail10clone_implINS2_14bad_exception_EEEE11get_deleterERKSt9type_info, symObjAddr: 0x66C0, symBinAddr: 0x1A5DA00, symSize: 0x10 }
  - { offset: 0x57B58B, size: 0x8, addend: 0x0, symName: __ZN5boost6detail17sp_counted_impl_pINS_16exception_detail10clone_implINS2_14bad_exception_EEEE17get_local_deleterERKSt9type_info, symObjAddr: 0x66D0, symBinAddr: 0x1A5DA10, symSize: 0x10 }
  - { offset: 0x57B5CB, size: 0x8, addend: 0x0, symName: __ZN5boost6detail17sp_counted_impl_pINS_16exception_detail10clone_implINS2_14bad_exception_EEEE19get_untyped_deleterEv, symObjAddr: 0x66E0, symBinAddr: 0x1A5DA20, symSize: 0x10 }
  - { offset: 0x57BA1F, size: 0x8, addend: 0x0, symName: __ZN5boost6detail16thread_data_baseC2Ev, symObjAddr: 0x66F0, symBinAddr: 0x1A5DA30, symSize: 0x170 }
  - { offset: 0x57BF36, size: 0x8, addend: 0x0, symName: __ZN5boost6detail26externally_launched_threadD1Ev, symObjAddr: 0x6860, symBinAddr: 0x1A5DBA0, symSize: 0xA0 }
  - { offset: 0x57C22E, size: 0x8, addend: 0x0, symName: __ZN5boost6detail26externally_launched_threadD0Ev, symObjAddr: 0x6900, symBinAddr: 0x1A5DC40, symSize: 0xA0 }
  - { offset: 0x57C520, size: 0x8, addend: 0x0, symName: __ZN5boost6detail26externally_launched_thread3runEv, symObjAddr: 0x69A0, symBinAddr: 0x1A5DCE0, symSize: 0x10 }
  - { offset: 0x57C552, size: 0x8, addend: 0x0, symName: __ZN5boost6detail26externally_launched_thread25notify_all_at_thread_exitEPNS_18condition_variableEPNS_5mutexE, symObjAddr: 0x69B0, symBinAddr: 0x1A5DCF0, symSize: 0x10 }
  - { offset: 0x57C5A0, size: 0x8, addend: 0x0, symName: __ZN5boost21thread_resource_errorC1EiPKc, symObjAddr: 0x6A10, symBinAddr: 0x1A5DD50, symSize: 0x90 }
  - { offset: 0x57C5A8, size: 0x8, addend: 0x0, symName: __ZN5boost21thread_resource_errorD1Ev, symObjAddr: 0x6AA0, symBinAddr: 0x1A5DDE0, symSize: 0x10 }
  - { offset: 0x57C6BF, size: 0x8, addend: 0x0, symName: __ZN5boost21thread_resource_errorD1Ev, symObjAddr: 0x6AA0, symBinAddr: 0x1A5DDE0, symSize: 0x10 }
  - { offset: 0x57C7D3, size: 0x8, addend: 0x0, symName: __ZN5boost10wrapexceptINS_21thread_resource_errorEEC1ERKS1_, symObjAddr: 0x6AB0, symBinAddr: 0x1A5DDF0, symSize: 0x80 }
  - { offset: 0x57C974, size: 0x8, addend: 0x0, symName: __ZN5boost10wrapexceptINS_21thread_resource_errorEED1Ev, symObjAddr: 0x6B30, symBinAddr: 0x1A5DE70, symSize: 0x50 }
  - { offset: 0x57CB8E, size: 0x8, addend: 0x0, symName: __ZNK5boost10wrapexceptINS_21thread_resource_errorEE5cloneEv, symObjAddr: 0x6B80, symBinAddr: 0x1A5DEC0, symSize: 0x100 }
  - { offset: 0x57CE93, size: 0x8, addend: 0x0, symName: __ZNK5boost10wrapexceptINS_21thread_resource_errorEE7rethrowEv, symObjAddr: 0x6C80, symBinAddr: 0x1A5DFC0, symSize: 0x50 }
  - { offset: 0x57CEEC, size: 0x8, addend: 0x0, symName: __ZN5boost10wrapexceptINS_21thread_resource_errorEED0Ev, symObjAddr: 0x6CD0, symBinAddr: 0x1A5E010, symSize: 0x60 }
  - { offset: 0x57D056, size: 0x8, addend: 0x0, symName: __ZThn8_N5boost10wrapexceptINS_21thread_resource_errorEED1Ev, symObjAddr: 0x6D30, symBinAddr: 0x1A5E070, symSize: 0x50 }
  - { offset: 0x57D1E9, size: 0x8, addend: 0x0, symName: __ZThn8_N5boost10wrapexceptINS_21thread_resource_errorEED0Ev, symObjAddr: 0x6D80, symBinAddr: 0x1A5E0C0, symSize: 0x60 }
  - { offset: 0x57D361, size: 0x8, addend: 0x0, symName: __ZThn48_N5boost10wrapexceptINS_21thread_resource_errorEED1Ev, symObjAddr: 0x6DE0, symBinAddr: 0x1A5E120, symSize: 0x50 }
  - { offset: 0x57D4D3, size: 0x8, addend: 0x0, symName: __ZThn48_N5boost10wrapexceptINS_21thread_resource_errorEED0Ev, symObjAddr: 0x6E30, symBinAddr: 0x1A5E170, symSize: 0x60 }
  - { offset: 0x57D64F, size: 0x8, addend: 0x0, symName: __ZN5boost21thread_resource_errorD0Ev, symObjAddr: 0x6E90, symBinAddr: 0x1A5E1D0, symSize: 0x20 }
  - { offset: 0x57D72F, size: 0x8, addend: 0x0, symName: __ZN5boost10wrapexceptINS_21thread_resource_errorEEC1ERKS2_, symObjAddr: 0x6EB0, symBinAddr: 0x1A5E1F0, symSize: 0xD0 }
  - { offset: 0x57D9B4, size: 0x8, addend: 0x0, symName: __ZN5boost18condition_variableC2Ev, symObjAddr: 0x6F80, symBinAddr: 0x1A5E2C0, symSize: 0xB0 }
  - { offset: 0x57DC36, size: 0x8, addend: 0x0, symName: __ZN5boost6detail17sp_counted_impl_pINS0_16thread_data_baseEED1Ev, symObjAddr: 0x7100, symBinAddr: 0x1A5E440, symSize: 0x10 }
  - { offset: 0x57DC6E, size: 0x8, addend: 0x0, symName: __ZN5boost6detail17sp_counted_impl_pINS0_16thread_data_baseEED0Ev, symObjAddr: 0x7110, symBinAddr: 0x1A5E450, symSize: 0x10 }
  - { offset: 0x57DCA6, size: 0x8, addend: 0x0, symName: __ZN5boost6detail17sp_counted_impl_pINS0_16thread_data_baseEE7disposeEv, symObjAddr: 0x7120, symBinAddr: 0x1A5E460, symSize: 0x20 }
  - { offset: 0x57DD04, size: 0x8, addend: 0x0, symName: __ZN5boost6detail17sp_counted_impl_pINS0_16thread_data_baseEE11get_deleterERKSt9type_info, symObjAddr: 0x7140, symBinAddr: 0x1A5E480, symSize: 0x10 }
  - { offset: 0x57DD44, size: 0x8, addend: 0x0, symName: __ZN5boost6detail17sp_counted_impl_pINS0_16thread_data_baseEE17get_local_deleterERKSt9type_info, symObjAddr: 0x7150, symBinAddr: 0x1A5E490, symSize: 0x10 }
  - { offset: 0x57DD84, size: 0x8, addend: 0x0, symName: __ZN5boost6detail17sp_counted_impl_pINS0_16thread_data_baseEE19get_untyped_deleterEv, symObjAddr: 0x7160, symBinAddr: 0x1A5E4A0, symSize: 0x10 }
  - { offset: 0x57DF7A, size: 0x8, addend: 0x0, symName: __ZNK5boost23enable_shared_from_thisINS_6detail16thread_data_baseEE22_internal_accept_ownerIS2_S2_EEvPKNS_10shared_ptrIT_EEPT0_, symObjAddr: 0x7170, symBinAddr: 0x1A5E4B0, symSize: 0xA0 }
  - { offset: 0x5818F5, size: 0x8, addend: 0x0, symName: __ZN5boost13thread_detailL10once_mutexE, symObjAddr: 0x258, symBinAddr: 0x237A9F8, symSize: 0x0 }
  - { offset: 0x581913, size: 0x8, addend: 0x0, symName: __ZN5boost13thread_detailL7once_cvE, symObjAddr: 0x298, symBinAddr: 0x237AA38, symSize: 0x0 }
  - { offset: 0x581930, size: 0x8, addend: 0x0, symName: __ZN5boost13thread_detail17enter_once_regionERNS_9once_flagE, symObjAddr: 0x0, symBinAddr: 0x1A5E630, symSize: 0x100 }
  - { offset: 0x581C59, size: 0x8, addend: 0x0, symName: __ZN5boost13thread_detail18commit_once_regionERNS_9once_flagE, symObjAddr: 0x110, symBinAddr: 0x1A5E730, symSize: 0x80 }
  - { offset: 0x581E1C, size: 0x8, addend: 0x0, symName: __ZN5boost13thread_detail20rollback_once_regionERNS_9once_flagE, symObjAddr: 0x190, symBinAddr: 0x1A5E7B0, symSize: 0x76 }
...
